
bin/ar_eval:     file format elf32-msp430


Disassembly of section __interrupt_vector_35:

0000ffd4 <__interrupt_vector_35>:
    ffd4:	08 66       	addc	r6,	r8	;

Disassembly of section .text:

00005344 <__crt0_start>:
    5344:	31 40 00 24 	mov	#9216,	r1	;#0x2400

00005348 <__crt0_init_bss>:
    5348:	3c 40 00 1c 	mov	#7168,	r12	;#0x1c00

0000534c <.Loc.76.1>:
    534c:	0d 43       	clr	r13		;

0000534e <.Loc.77.1>:
    534e:	3e 40 62 00 	mov	#98,	r14	;#0x0062

00005352 <.Loc.81.1>:
    5352:	b0 12 bc 69 	call	#27068		;#0x69bc

00005356 <__crt0_call_main>:
    5356:	0c 43       	clr	r12		;

00005358 <.Loc.254.1>:
    5358:	b0 12 d8 61 	call	#25048		;#0x61d8

0000535c <__crt0_call_exit>:
    535c:	b0 12 ba 69 	call	#27066		;#0x69ba

00005360 <__app_init>:
    5360:	b0 12 9a 57 	call	#22426		;#0x579a

00005364 <.Loc.32.1>:
    5364:	30 41       	ret			

00005366 <udivmodhi4>:
    5366:	0f 4c       	mov	r12,	r15	;

00005368 <.Loc.30.1>:
    5368:	7c 40 11 00 	mov.b	#17,	r12	;#0x0011

0000536c <.LVL2>:
    536c:	5b 43       	mov.b	#1,	r11	;r3 As==01

0000536e <.L2>:
    536e:	0d 9f       	cmp	r15,	r13	;
    5370:	05 2c       	jc	$+12     	;abs 0x537c
    5372:	3c 53       	add	#-1,	r12	;r3 As==11

00005374 <.Loc.33.1>:
    5374:	0c 93       	cmp	#0,	r12	;r3 As==00
    5376:	05 24       	jz	$+12     	;abs 0x5382

00005378 <.Loc.33.1>:
    5378:	0d 93       	cmp	#0,	r13	;r3 As==00
    537a:	07 34       	jge	$+16     	;abs 0x538a

0000537c <.L10>:
    537c:	4c 43       	clr.b	r12		;

0000537e <.L6>:
    537e:	0b 93       	cmp	#0,	r11	;r3 As==00
    5380:	07 20       	jnz	$+16     	;abs 0x5390

00005382 <.L4>:
    5382:	0e 93       	cmp	#0,	r14	;r3 As==00
    5384:	01 24       	jz	$+4      	;abs 0x5388
    5386:	0c 4f       	mov	r15,	r12	;

00005388 <.L1>:
    5388:	30 41       	ret			

0000538a <.L5>:
    538a:	5d 02       	rlam	#1,	r13	;

0000538c <.Loc.36.1>:
    538c:	5b 02       	rlam	#1,	r11	;
    538e:	ef 3f       	jmp	$-32     	;abs 0x536e

00005390 <.L8>:
    5390:	0f 9d       	cmp	r13,	r15	;
    5392:	02 28       	jnc	$+6      	;abs 0x5398

00005394 <.Loc.42.1>:
    5394:	0f 8d       	sub	r13,	r15	;

00005396 <.Loc.43.1>:
    5396:	0c db       	bis	r11,	r12	;

00005398 <.L7>:
    5398:	5b 03       	rrum	#1,	r11	;

0000539a <.Loc.46.1>:
    539a:	5d 03       	rrum	#1,	r13	;
    539c:	f0 3f       	jmp	$-30     	;abs 0x537e

0000539e <__mspabi_divi>:
    539e:	0a 15       	pushm	#1,	r10	;16-bit words

000053a0 <.LCFI0>:
    53a0:	4a 43       	clr.b	r10		;

000053a2 <.Loc.61.1>:
    53a2:	0c 93       	cmp	#0,	r12	;r3 As==00
    53a4:	04 34       	jge	$+10     	;abs 0x53ae

000053a6 <.Loc.63.1>:
    53a6:	4e 43       	clr.b	r14		;
    53a8:	0e 8c       	sub	r12,	r14	;
    53aa:	0c 4e       	mov	r14,	r12	;

000053ac <.LVL16>:
    53ac:	5a 43       	mov.b	#1,	r10	;r3 As==01

000053ae <.L18>:
    53ae:	0d 93       	cmp	#0,	r13	;r3 As==00
    53b0:	04 34       	jge	$+10     	;abs 0x53ba

000053b2 <.Loc.69.1>:
    53b2:	4e 43       	clr.b	r14		;
    53b4:	0e 8d       	sub	r13,	r14	;
    53b6:	0d 4e       	mov	r14,	r13	;

000053b8 <.LVL18>:
    53b8:	1a e3       	xor	#1,	r10	;r3 As==01

000053ba <.L19>:
    53ba:	4e 43       	clr.b	r14		;
    53bc:	b0 12 66 53 	call	#21350		;#0x5366

000053c0 <.LVL20>:
    53c0:	0a 93       	cmp	#0,	r10	;r3 As==00
    53c2:	03 24       	jz	$+8      	;abs 0x53ca

000053c4 <.LVL21>:
    53c4:	4d 43       	clr.b	r13		;
    53c6:	0d 8c       	sub	r12,	r13	;
    53c8:	0c 4d       	mov	r13,	r12	;

000053ca <.L17>:
    53ca:	0a 17       	popm	#1,	r10	;16-bit words

000053cc <.LCFI1>:
    53cc:	30 41       	ret			

000053ce <__mspabi_remi>:
    53ce:	0a 15       	pushm	#1,	r10	;16-bit words

000053d0 <.LCFI2>:
    53d0:	4a 43       	clr.b	r10		;

000053d2 <.Loc.88.1>:
    53d2:	0c 93       	cmp	#0,	r12	;r3 As==00
    53d4:	04 34       	jge	$+10     	;abs 0x53de

000053d6 <.Loc.90.1>:
    53d6:	4e 43       	clr.b	r14		;
    53d8:	0e 8c       	sub	r12,	r14	;
    53da:	0c 4e       	mov	r14,	r12	;

000053dc <.LVL25>:
    53dc:	5a 43       	mov.b	#1,	r10	;r3 As==01

000053de <.L26>:
    53de:	0f 4d       	mov	r13,	r15	;
    53e0:	4e 18 0f 11 	rpt #15 { rrax.w	r15		;
    53e4:	0d ef       	xor	r15,	r13	;
    53e6:	5e 43       	mov.b	#1,	r14	;r3 As==01
    53e8:	0d 8f       	sub	r15,	r13	;
    53ea:	b0 12 66 53 	call	#21350		;#0x5366

000053ee <.LVL28>:
    53ee:	0a 93       	cmp	#0,	r10	;r3 As==00
    53f0:	03 24       	jz	$+8      	;abs 0x53f8

000053f2 <.LVL29>:
    53f2:	4d 43       	clr.b	r13		;
    53f4:	0d 8c       	sub	r12,	r13	;
    53f6:	0c 4d       	mov	r13,	r12	;

000053f8 <.L25>:
    53f8:	0a 17       	popm	#1,	r10	;16-bit words

000053fa <.LCFI3>:
    53fa:	30 41       	ret			

000053fc <__mspabi_divu>:
    53fc:	4e 43       	clr.b	r14		;
    53fe:	b0 12 66 53 	call	#21350		;#0x5366

00005402 <.LVL32>:
    5402:	30 41       	ret			

00005404 <__mspabi_remu>:
    5404:	5e 43       	mov.b	#1,	r14	;r3 As==01
    5406:	b0 12 66 53 	call	#21350		;#0x5366

0000540a <.LVL34>:
    540a:	30 41       	ret			

0000540c <sqrt16>:
    540c:	6a 15       	pushm	#7,	r10	;16-bit words

0000540e <.LCFI0>:
    540e:	08 4c       	mov	r12,	r8	;

00005410 <L0^A>:
    5410:	0a 4d       	mov	r13,	r10	;

00005412 <.Loc.33.1>:
    5412:	4c 43       	clr.b	r12		;

00005414 <.LVL2>:
    5414:	4d 43       	clr.b	r13		;

00005416 <.Loc.35.1>:
    5416:	39 40 ff 7f 	mov	#32767,	r9	;#0x7fff

0000541a <.Loc.34.1>:
    541a:	45 43       	clr.b	r5		;

0000541c <.Loc.33.1>:
    541c:	34 43       	mov	#-1,	r4	;r3 As==11

0000541e <.L2>:
    541e:	0c 98       	cmp	r8,	r12	;
    5420:	02 20       	jnz	$+6      	;abs 0x5426
    5422:	0d 9a       	cmp	r10,	r13	;
    5424:	05 24       	jz	$+12     	;abs 0x5430

00005426 <.L5>:
    5426:	0c 44       	mov	r4,	r12	;
    5428:	0c 85       	sub	r5,	r12	;

0000542a <.LVL4>:
    542a:	5d 43       	mov.b	#1,	r13	;r3 As==01
    542c:	0d 9c       	cmp	r12,	r13	;
    542e:	03 28       	jnc	$+8      	;abs 0x5436

00005430 <.L1>:
    5430:	0c 49       	mov	r9,	r12	;
    5432:	64 17       	popm	#7,	r10	;16-bit words

00005434 <.LCFI1>:
    5434:	30 41       	ret			

00005436 <.L6>:
    5436:	06 44       	mov	r4,	r6	;
    5438:	06 55       	add	r5,	r6	;
    543a:	4d 43       	clr.b	r13		;
    543c:	4c 43       	clr.b	r12		;
    543e:	07 4d       	mov	r13,	r7	;
    5440:	07 6c       	addc	r12,	r7	;

00005442 <.Loc.40.1>:
    5442:	0c 46       	mov	r6,	r12	;
    5444:	0d 47       	mov	r7,	r13	;
    5446:	12 c3       	clrc			
    5448:	0d 10       	rrc	r13		;
    544a:	0c 10       	rrc	r12		;

0000544c <.Loc.40.1>:
    544c:	09 4c       	mov	r12,	r9	;

0000544e <.LVL5>:
    544e:	0e 4c       	mov	r12,	r14	;
    5450:	0f 4d       	mov	r13,	r15	;
    5452:	b0 12 88 69 	call	#27016		;#0x6988

00005456 <.LVL6>:
    5456:	0d 9a       	cmp	r10,	r13	;
    5458:	06 28       	jnc	$+14     	;abs 0x5466
    545a:	0a 9d       	cmp	r13,	r10	;
    545c:	02 20       	jnz	$+6      	;abs 0x5462
    545e:	0c 98       	cmp	r8,	r12	;
    5460:	02 28       	jnc	$+6      	;abs 0x5466

00005462 <.L9>:
    5462:	04 49       	mov	r9,	r4	;

00005464 <.LVL7>:
    5464:	dc 3f       	jmp	$-70     	;abs 0x541e

00005466 <.L8>:
    5466:	05 49       	mov	r9,	r5	;

00005468 <.LVL9>:
    5468:	da 3f       	jmp	$-74     	;abs 0x541e

0000546a <task_init>:
    546a:	d2 43 08 45 	mov.b	#1,	&0x4508	;r3 As==01

0000546e <L0^A>:
    546e:	dc 43 00 00 	mov.b	#1,	0(r12)	;r3 As==01

00005472 <.Loc.134.1>:
    5472:	bc 40 03 00 	mov	#3,	2(r12)	;
    5476:	02 00 

00005478 <.Loc.135.1>:
    5478:	8c 43 04 00 	mov	#0,	4(r12)	;r3 As==00

0000547c <.Loc.137.1>:
    547c:	92 43 0a 45 	mov	#1,	&0x450a	;r3 As==01

00005480 <.Loc.139.1>:
    5480:	3c 40 16 57 	mov	#22294,	r12	;#0x5716

00005484 <.LVL1>:
    5484:	30 41       	ret			

00005486 <task_transform>:
    5486:	2a 15       	pushm	#3,	r10	;16-bit words

00005488 <.LCFI0>:
    5488:	31 80 0a 00 	sub	#10,	r1	;#0x000a

0000548c <.LCFI1>:
    548c:	09 4c       	mov	r12,	r9	;

0000548e <.Loc.272.1>:
    548e:	0a 4c       	mov	r12,	r10	;
    5490:	3a 50 12 00 	add	#18,	r10	;#0x0012
    5494:	38 40 a8 69 	mov	#27048,	r8	;#0x69a8
    5498:	7e 40 03 00 	mov.b	#3,	r14	;
    549c:	0d 4a       	mov	r10,	r13	;
    549e:	0c 41       	mov	r1,	r12	;

000054a0 <.LVL4>:
    54a0:	1c 53       	inc	r12		;
    54a2:	88 12       	call	r8		;

000054a4 <.Loc.278.1>:
    54a4:	7e 40 03 00 	mov.b	#3,	r14	;
    54a8:	0d 49       	mov	r9,	r13	;
    54aa:	3d 50 15 00 	add	#21,	r13	;#0x0015
    54ae:	0c 41       	mov	r1,	r12	;
    54b0:	2c 52       	add	#4,	r12	;r2 As==10
    54b2:	88 12       	call	r8		;

000054b4 <.Loc.278.1>:
    54b4:	7e 40 03 00 	mov.b	#3,	r14	;
    54b8:	0d 49       	mov	r9,	r13	;
    54ba:	3d 50 18 00 	add	#24,	r13	;#0x0018
    54be:	0c 41       	mov	r1,	r12	;
    54c0:	3c 50 07 00 	add	#7,	r12	;
    54c4:	88 12       	call	r8		;

000054c6 <.Loc.278.1>:
    54c6:	0e 41       	mov	r1,	r14	;
    54c8:	1e 53       	inc	r14		;
    54ca:	0d 4a       	mov	r10,	r13	;
    54cc:	39 50 1b 00 	add	#27,	r9	;#0x001b

000054d0 <.L10>:
    54d0:	6a 4e       	mov.b	@r14,	r10	;
    54d2:	5f 4e 01 00 	mov.b	1(r14),	r15	;
    54d6:	5c 4e 02 00 	mov.b	2(r14),	r12	;

000054da <.Loc.287.1>:
    54da:	78 40 09 00 	mov.b	#9,	r8	;
    54de:	68 9e       	cmp.b	@r14,	r8	;
    54e0:	21 2c       	jc	$+68     	;abs 0x5524

000054e2 <.Loc.287.1>:
    54e2:	48 9f       	cmp.b	r15,	r8	;
    54e4:	02 2c       	jc	$+6      	;abs 0x54ea

000054e6 <.Loc.287.1>:
    54e6:	48 9c       	cmp.b	r12,	r8	;
    54e8:	11 28       	jnc	$+36     	;abs 0x550c

000054ea <.L4>:
    54ea:	3a 90 0a 00 	cmp	#10,	r10	;#0x000a
    54ee:	1a 24       	jz	$+54     	;abs 0x5524

000054f0 <.Loc.291.1>:
    54f0:	cd 4a 00 00 	mov.b	r10,	0(r13)	;

000054f4 <.L6>:
    54f4:	7a 40 0a 00 	mov.b	#10,	r10	;#0x000a
    54f8:	4a 9f       	cmp.b	r15,	r10	;
    54fa:	17 2c       	jc	$+48     	;abs 0x552a

000054fc <.Loc.300.1>:
    54fc:	cd 4f 01 00 	mov.b	r15,	1(r13)	;

00005500 <.L8>:
    5500:	7f 40 0a 00 	mov.b	#10,	r15	;#0x000a
    5504:	4f 9c       	cmp.b	r12,	r15	;
    5506:	14 2c       	jc	$+42     	;abs 0x5530

00005508 <.Loc.309.1>:
    5508:	cd 4c 02 00 	mov.b	r12,	2(r13)	;

0000550c <.L5>:
    550c:	3e 50 03 00 	add	#3,	r14	;
    5510:	3d 50 03 00 	add	#3,	r13	;

00005514 <.Loc.285.1>:
    5514:	0d 99       	cmp	r9,	r13	;
    5516:	dc 23       	jnz	$-70     	;abs 0x54d0

00005518 <.Loc.318.1>:
    5518:	3c 40 ee 55 	mov	#21998,	r12	;#0x55ee
    551c:	31 50 0a 00 	add	#10,	r1	;#0x000a

00005520 <.LCFI2>:
    5520:	28 17       	popm	#3,	r10	;16-bit words

00005522 <.LCFI3>:
    5522:	30 41       	ret			

00005524 <.L3>:
    5524:	cd 43 00 00 	mov.b	#0,	0(r13)	;r3 As==00
    5528:	e5 3f       	jmp	$-52     	;abs 0x54f4

0000552a <.L7>:
    552a:	cd 43 01 00 	mov.b	#0,	1(r13)	;r3 As==00
    552e:	e8 3f       	jmp	$-46     	;abs 0x5500

00005530 <.L9>:
    5530:	cd 43 02 00 	mov.b	#0,	2(r13)	;r3 As==00
    5534:	eb 3f       	jmp	$-40     	;abs 0x550c

00005536 <task_classify>:
    5536:	8c 43 a0 00 	mov	#0,	160(r12);r3 As==00, 0x00a0

0000553a <.Loc.530.1>:
    553a:	3c 40 40 55 	mov	#21824,	r12	;#0x5540

0000553e <.LVL11>:
    553e:	30 41       	ret			

00005540 <task_stats>:
    5540:	1d 4c 08 00 	mov	8(r12),	r13	;
    5544:	1d 53       	inc	r13		;
    5546:	8c 4d 08 00 	mov	r13,	8(r12)	;

0000554a <.Loc.546.1>:
    554a:	1e 4c a0 00 	mov	160(r12),r14	;0x000a0

0000554e <.Loc.546.1>:
    554e:	0e 93       	cmp	#0,	r14	;r3 As==00
    5550:	0c 24       	jz	$+26     	;abs 0x556a
    5552:	1e 93       	cmp	#1,	r14	;r3 As==01
    5554:	02 20       	jnz	$+6      	;abs 0x555a

00005556 <.Loc.550.1>:
    5556:	9c 53 0a 00 	inc	10(r12)		;

0000555a <.L18>:
    555a:	3c 40 70 55 	mov	#21872,	r12	;#0x5570

0000555e <.LVL14>:
    555e:	3d 90 80 00 	cmp	#128,	r13	;#0x0080
    5562:	02 24       	jz	$+6      	;abs 0x5568

00005564 <.Loc.573.1>:
    5564:	3c 40 32 58 	mov	#22578,	r12	;#0x5832

00005568 <.L16>:
    5568:	30 41       	ret			

0000556a <.L17>:
    556a:	9c 53 0c 00 	inc	12(r12)		;

0000556e <.Loc.555.1>:
    556e:	f5 3f       	jmp	$-20     	;abs 0x555a

00005570 <task_idle>:
    5570:	3c 40 16 57 	mov	#22294,	r12	;#0x5716

00005574 <.LVL17>:
    5574:	30 41       	ret			

00005576 <task_resetStats>:
    5576:	8c 43 0a 00 	mov	#0,	10(r12)	;r3 As==00, 0x000a

0000557a <.Loc.603.1>:
    557a:	8c 43 0c 00 	mov	#0,	12(r12)	;r3 As==00, 0x000c

0000557e <.Loc.604.1>:
    557e:	8c 43 08 00 	mov	#0,	8(r12)	;r3 As==00

00005582 <.Loc.606.1>:
    5582:	8c 43 10 00 	mov	#0,	16(r12)	;r3 As==00, 0x0010

00005586 <.Loc.608.1>:
    5586:	3c 40 32 58 	mov	#22578,	r12	;#0x5832

0000558a <.LVL19>:
    558a:	30 41       	ret			

0000558c <task_train>:
    558c:	1d 4c 0e 00 	mov	14(r12),r13	;0x0000e

00005590 <.Loc.632.1>:
    5590:	1e 4c a0 00 	mov	160(r12),r14	;0x000a0

00005594 <.Loc.632.1>:
    5594:	0e 93       	cmp	#0,	r14	;r3 As==00
    5596:	0e 24       	jz	$+30     	;abs 0x55b4
    5598:	1e 93       	cmp	#1,	r14	;r3 As==01
    559a:	1a 24       	jz	$+54     	;abs 0x55d0

0000559c <.L26>:
    559c:	1d 53       	inc	r13		;

0000559e <.Loc.645.1>:
    559e:	8c 4d 0e 00 	mov	r13,	14(r12)	; 0x000e

000055a2 <.Loc.647.1>:
    55a2:	3c 40 32 58 	mov	#22578,	r12	;#0x5832

000055a6 <.LVL23>:
    55a6:	7e 40 0f 00 	mov.b	#15,	r14	;#0x000f
    55aa:	0e 9d       	cmp	r13,	r14	;
    55ac:	02 2c       	jc	$+6      	;abs 0x55b2

000055ae <.Loc.653.1>:
    55ae:	3c 40 70 55 	mov	#21872,	r12	;#0x5570

000055b2 <.L23>:
    55b2:	30 41       	ret			

000055b4 <.L24>:
    55b4:	0e 4d       	mov	r13,	r14	;
    55b6:	3e 52       	add	#8,	r14	;r2 As==11
    55b8:	5e 06       	rlam	#2,	r14	;
    55ba:	0e 5c       	add	r12,	r14	;
    55bc:	9e 4c 1c 00 	mov	28(r12),0(r14)	;0x0001c
    55c0:	00 00 

000055c2 <.Loc.636.1>:
    55c2:	0e 4d       	mov	r13,	r14	;
    55c4:	5e 06       	rlam	#2,	r14	;
    55c6:	0e 5c       	add	r12,	r14	;
    55c8:	9e 4c 1e 00 	mov	30(r12),34(r14)	;0x0001e, 0x0022
    55cc:	22 00 

000055ce <.Loc.637.1>:
    55ce:	e6 3f       	jmp	$-50     	;abs 0x559c

000055d0 <.L25>:
    55d0:	0e 4d       	mov	r13,	r14	;
    55d2:	3e 50 18 00 	add	#24,	r14	;#0x0018
    55d6:	5e 06       	rlam	#2,	r14	;
    55d8:	0e 5c       	add	r12,	r14	;
    55da:	9e 4c 1c 00 	mov	28(r12),0(r14)	;0x0001c
    55de:	00 00 

000055e0 <.Loc.640.1>:
    55e0:	0e 4d       	mov	r13,	r14	;
    55e2:	5e 06       	rlam	#2,	r14	;
    55e4:	0e 5c       	add	r12,	r14	;
    55e6:	9e 4c 1e 00 	mov	30(r12),98(r14)	;0x0001e, 0x0062
    55ea:	62 00 

000055ec <.Loc.641.1>:
    55ec:	d7 3f       	jmp	$-80     	;abs 0x559c

000055ee <task_featurize>:
    55ee:	6a 15       	pushm	#7,	r10	;16-bit words

000055f0 <.LCFI5>:
    55f0:	21 83       	decd	r1		;

000055f2 <.LCFI6>:
    55f2:	06 4c       	mov	r12,	r6	;

000055f4 <.Loc.325.1>:
    55f4:	19 4c a2 00 	mov	162(r12),r9	;0x000a2

000055f8 <.LVL26>:
    55f8:	0e 4c       	mov	r12,	r14	;
    55fa:	3e 50 12 00 	add	#18,	r14	;#0x0012
    55fe:	0f 4c       	mov	r12,	r15	;
    5600:	3f 50 1b 00 	add	#27,	r15	;#0x001b

00005604 <.Loc.325.1>:
    5604:	0c 4e       	mov	r14,	r12	;

00005606 <.LVL27>:
    5606:	48 43       	clr.b	r8		;

00005608 <.Loc.338.1>:
    5608:	45 43       	clr.b	r5		;

0000560a <.Loc.338.1>:
    560a:	4a 43       	clr.b	r10		;

0000560c <.L30>:
    560c:	6a 5c       	add.b	@r12,	r10	;

0000560e <.LVL29>:
    560e:	3a f0 ff 00 	and	#255,	r10	;#0x00ff

00005612 <.LVL30>:
    5612:	55 5c 01 00 	add.b	1(r12),	r5	;

00005616 <.LVL31>:
    5616:	35 f0 ff 00 	and	#255,	r5	;#0x00ff

0000561a <.LVL32>:
    561a:	58 5c 02 00 	add.b	2(r12),	r8	;

0000561e <.LVL33>:
    561e:	38 f0 ff 00 	and	#255,	r8	;#0x00ff

00005622 <.LVL34>:
    5622:	3c 50 03 00 	add	#3,	r12	;

00005626 <.Loc.342.1>:
    5626:	0f 9c       	cmp	r12,	r15	;
    5628:	f1 23       	jnz	$-28     	;abs 0x560c

0000562a <.Loc.349.1>:
    562a:	5a 07       	rrum	#2,	r10	;

0000562c <.LVL35>:
    562c:	55 07       	rrum	#2,	r5	;

0000562e <.LVL36>:
    562e:	58 07       	rrum	#2,	r8	;

00005630 <.LVL37>:
    5630:	4d 43       	clr.b	r13		;

00005632 <.Loc.339.1>:
    5632:	47 43       	clr.b	r7		;

00005634 <.Loc.339.1>:
    5634:	4c 43       	clr.b	r12		;

00005636 <.L37>:
    5636:	6b 4e       	mov.b	@r14,	r11	;

00005638 <.Loc.355.1>:
    5638:	6a 9e       	cmp.b	@r14,	r10	;
    563a:	57 2c       	jc	$+176    	;abs 0x56ea

0000563c <.Loc.357.1>:
    563c:	4c 8a       	sub.b	r10,	r12	;

0000563e <.LVL39>:
    563e:	4c 5b       	add.b	r11,	r12	;

00005640 <.L43>:
    5640:	3c f0 ff 00 	and	#255,	r12	;#0x00ff

00005644 <.LVL40>:
    5644:	5b 4e 01 00 	mov.b	1(r14),	r11	;

00005648 <.Loc.364.1>:
    5648:	55 9e 01 00 	cmp.b	1(r14),	r5	;
    564c:	51 2c       	jc	$+164    	;abs 0x56f0

0000564e <.Loc.366.1>:
    564e:	47 85       	sub.b	r5,	r7	;

00005650 <.LVL41>:
    5650:	4b 57       	add.b	r7,	r11	;
    5652:	47 4b       	mov.b	r11,	r7	;

00005654 <.L34>:
    5654:	5b 4e 02 00 	mov.b	2(r14),	r11	;

00005658 <.Loc.373.1>:
    5658:	58 9e 02 00 	cmp.b	2(r14),	r8	;
    565c:	4e 2c       	jc	$+158    	;abs 0x56fa

0000565e <.Loc.375.1>:
    565e:	4d 88       	sub.b	r8,	r13	;

00005660 <.LVL43>:
    5660:	4b 5d       	add.b	r13,	r11	;
    5662:	4d 4b       	mov.b	r11,	r13	;

00005664 <.L36>:
    5664:	3e 50 03 00 	add	#3,	r14	;

00005668 <.Loc.353.1>:
    5668:	0f 9e       	cmp	r14,	r15	;
    566a:	e5 23       	jnz	$-52     	;abs 0x5636

0000566c <.LVL45>:
    566c:	5c 07       	rrum	#2,	r12	;

0000566e <.Loc.394.1>:
    566e:	57 07       	rrum	#2,	r7	;

00005670 <.Loc.394.1>:
    5670:	04 4d       	mov	r13,	r4	;
    5672:	54 07       	rrum	#2,	r4	;

00005674 <.Loc.394.1>:
    5674:	0d 4c       	mov	r12,	r13	;
    5676:	b0 12 5c 69 	call	#26972		;#0x695c

0000567a <.LVL49>:
    567a:	81 4c 00 00 	mov	r12,	0(r1)	;

0000567e <.Loc.394.1>:
    567e:	0c 47       	mov	r7,	r12	;
    5680:	0d 47       	mov	r7,	r13	;
    5682:	b0 12 5c 69 	call	#26972		;#0x695c

00005686 <.Loc.394.1>:
    5686:	27 41       	mov	@r1,	r7	;
    5688:	07 5c       	add	r12,	r7	;

0000568a <.Loc.394.1>:
    568a:	0c 44       	mov	r4,	r12	;
    568c:	0d 44       	mov	r4,	r13	;
    568e:	b0 12 5c 69 	call	#26972		;#0x695c

00005692 <.Loc.394.1>:
    5692:	07 5c       	add	r12,	r7	;

00005694 <.LVL52>:
    5694:	0c 4a       	mov	r10,	r12	;
    5696:	0d 4a       	mov	r10,	r13	;
    5698:	b0 12 5c 69 	call	#26972		;#0x695c
    569c:	0a 4c       	mov	r12,	r10	;

0000569e <.LVL54>:
    569e:	0c 45       	mov	r5,	r12	;
    56a0:	0d 45       	mov	r5,	r13	;
    56a2:	b0 12 5c 69 	call	#26972		;#0x695c

000056a6 <.Loc.393.1>:
    56a6:	0a 5c       	add	r12,	r10	;

000056a8 <.Loc.393.1>:
    56a8:	0c 48       	mov	r8,	r12	;
    56aa:	0d 48       	mov	r8,	r13	;
    56ac:	b0 12 5c 69 	call	#26972		;#0x695c

000056b0 <.Loc.393.1>:
    56b0:	0c 5a       	add	r10,	r12	;

000056b2 <.Loc.395.1>:
    56b2:	38 40 0c 54 	mov	#21516,	r8	;#0x540c

000056b6 <.LVL57>:
    56b6:	3c b0 00 80 	bit	#-32768,r12	;#0x8000
    56ba:	0d 7d       	subc	r13,	r13	;
    56bc:	3d e3       	inv	r13		;
    56be:	88 12       	call	r8		;
    56c0:	0a 4c       	mov	r12,	r10	;

000056c2 <.LVL59>:
    56c2:	0c 47       	mov	r7,	r12	;
    56c4:	0d 47       	mov	r7,	r13	;
    56c6:	4e 18 0d 11 	rpt #15 { rrax.w	r13		;
    56ca:	88 12       	call	r8		;

000056cc <.LVL60>:
    56cc:	09 93       	cmp	#0,	r9	;r3 As==00
    56ce:	1a 24       	jz	$+54     	;abs 0x5704
    56d0:	39 53       	add	#-1,	r9	;r3 As==11

000056d2 <.LVL61>:
    56d2:	5d 43       	mov.b	#1,	r13	;r3 As==01
    56d4:	0d 99       	cmp	r9,	r13	;
    56d6:	1d 28       	jnc	$+60     	;abs 0x5712

000056d8 <.Loc.402.1>:
    56d8:	86 4a 1c 00 	mov	r10,	28(r6)	; 0x001c

000056dc <.Loc.403.1>:
    56dc:	86 4c 1e 00 	mov	r12,	30(r6)	; 0x001e

000056e0 <.Loc.404.1>:
    56e0:	3c 40 8c 55 	mov	#21900,	r12	;#0x558c

000056e4 <.L29>:
    56e4:	21 53       	incd	r1		;

000056e6 <.LCFI7>:
    56e6:	64 17       	popm	#7,	r10	;16-bit words

000056e8 <.LCFI8>:
    56e8:	30 41       	ret			

000056ea <.L31>:
    56ea:	4c 5a       	add.b	r10,	r12	;

000056ec <.LVL64>:
    56ec:	4c 8b       	sub.b	r11,	r12	;
    56ee:	a8 3f       	jmp	$-174    	;abs 0x5640

000056f0 <.L33>:
    56f0:	47 55       	add.b	r5,	r7	;

000056f2 <.LVL66>:
    56f2:	47 8b       	sub.b	r11,	r7	;
    56f4:	37 f0 ff 00 	and	#255,	r7	;#0x00ff

000056f8 <.LVL67>:
    56f8:	ad 3f       	jmp	$-164    	;abs 0x5654

000056fa <.L35>:
    56fa:	4d 58       	add.b	r8,	r13	;

000056fc <.LVL68>:
    56fc:	4d 8b       	sub.b	r11,	r13	;
    56fe:	3d f0 ff 00 	and	#255,	r13	;#0x00ff

00005702 <.LVL69>:
    5702:	b0 3f       	jmp	$-158    	;abs 0x5664

00005704 <.L38>:
    5704:	86 4a 1c 00 	mov	r10,	28(r6)	; 0x001c

00005708 <.Loc.408.1>:
    5708:	86 4c 1e 00 	mov	r12,	30(r6)	; 0x001e

0000570c <.Loc.409.1>:
    570c:	3c 40 36 55 	mov	#21814,	r12	;#0x5536

00005710 <.LVL71>:
    5710:	e9 3f       	jmp	$-44     	;abs 0x56e4

00005712 <.L39>:
    5712:	03 43       	nop			

00005714 <.LVL73>:
    5714:	e7 3f       	jmp	$-48     	;abs 0x56e4

00005716 <task_selectMode>:
    5716:	0d 4c       	mov	r12,	r13	;

00005718 <.LVL75>:
    5718:	1c 4c 04 00 	mov	4(r12),	r12	;

0000571c <.LVL76>:
    571c:	1c 53       	inc	r12		;

0000571e <.Loc.166.1>:
    571e:	8d 4c 04 00 	mov	r12,	4(r13)	;

00005722 <.Loc.168.1>:
    5722:	6e 43       	mov.b	#2,	r14	;r3 As==10
    5724:	0e 9c       	cmp	r12,	r14	;
    5726:	0a 2c       	jc	$+22     	;abs 0x573c

00005728 <.Loc.170.1>:
    5728:	6e 42       	mov.b	#4,	r14	;r2 As==10
    572a:	0e 9c       	cmp	r12,	r14	;
    572c:	2b 28       	jnc	$+88     	;abs 0x5784

0000572e <.Loc.170.1>:
    572e:	6e 43       	mov.b	#2,	r14	;r3 As==10

00005730 <.L45>:
    5730:	3c 40 70 55 	mov	#21872,	r12	;#0x5570

00005734 <.LVL80>:
    5734:	8d 9e 02 00 	cmp	r14,	2(r13)	;
    5738:	11 20       	jnz	$+36     	;abs 0x575c

0000573a <.L44>:
    573a:	30 41       	ret			

0000573c <.L51>:
    573c:	5e 43       	mov.b	#1,	r14	;r3 As==01
    573e:	f8 3f       	jmp	$-14     	;abs 0x5730

00005740 <.L50>:
    5740:	3c 40 6a 54 	mov	#21610,	r12	;#0x546a

00005744 <.LVL84>:
    5744:	c2 93 08 45 	cmp.b	#0,	&0x4508	;r3 As==00
    5748:	f8 27       	jz	$-14     	;abs 0x573a

0000574a <.Loc.181.1>:
    574a:	c2 43 08 45 	mov.b	#0,	&0x4508	;r3 As==00

0000574e <.Loc.182.1>:
    574e:	f2 d0 10 00 	bis.b	#16,	&0x0222	;#0x0010
    5752:	22 02 

00005754 <.Loc.182.1>:
    5754:	f2 f0 ef ff 	and.b	#-17,	&0x0222	;#0xffef
    5758:	22 02 
    575a:	ef 3f       	jmp	$-32     	;abs 0x573a

0000575c <.L54>:
    575c:	8d 4e 02 00 	mov	r14,	2(r13)	;

00005760 <.Loc.199.1>:
    5760:	8d 43 06 00 	mov	#0,	6(r13)	;r3 As==00

00005764 <.LVL86>:
    5764:	1e 93       	cmp	#1,	r14	;r3 As==01
    5766:	09 24       	jz	$+20     	;abs 0x577a

00005768 <.Loc.202.1>:
    5768:	ad 43 a2 00 	mov	#2,	162(r13);r3 As==10, 0x00a2

0000576c <.LVL88>:
    576c:	8d 43 a0 00 	mov	#0,	160(r13);r3 As==00, 0x00a0

00005770 <.L55>:
    5770:	8d 43 10 00 	mov	#0,	16(r13)	;r3 As==00, 0x0010

00005774 <.LVL90>:
    5774:	3c 40 7e 58 	mov	#22654,	r12	;#0x587e
    5778:	e0 3f       	jmp	$-62     	;abs 0x573a

0000577a <.L49>:
    577a:	9d 43 a2 00 	mov	#1,	162(r13);r3 As==01, 0x00a2

0000577e <.LVL92>:
    577e:	9d 43 a0 00 	mov	#1,	160(r13);r3 As==01, 0x00a0

00005782 <.LVL93>:
    5782:	f6 3f       	jmp	$-18     	;abs 0x5770

00005784 <.L46>:
    5784:	7e 40 06 00 	mov.b	#6,	r14	;
    5788:	0e 9c       	cmp	r12,	r14	;
    578a:	da 2b       	jnc	$-74     	;abs 0x5740

0000578c <.Loc.196.1>:
    578c:	8d 43 02 00 	mov	#0,	2(r13)	;r3 As==00

00005790 <.Loc.199.1>:
    5790:	8d 43 a2 00 	mov	#0,	162(r13);r3 As==00, 0x00a2

00005794 <.LVL97>:
    5794:	3c 40 76 55 	mov	#21878,	r12	;#0x5576

00005798 <.LVL98>:
    5798:	d0 3f       	jmp	$-94     	;abs 0x573a

0000579a <thread1_init>:
    579a:	21 83       	decd	r1		;

0000579c <.LCFI10>:
    579c:	b1 40 a4 00 	mov	#164,	0(r1)	;#0x00a4
    57a0:	00 00 
    57a2:	3f 40 b0 45 	mov	#17840,	r15	;#0x45b0
    57a6:	3e 40 0c 45 	mov	#17676,	r14	;#0x450c
    57aa:	3d 40 6a 54 	mov	#21610,	r13	;#0x546a
    57ae:	7c 40 0f 00 	mov.b	#15,	r12	;#0x000f
    57b2:	b0 12 d6 58 	call	#22742		;#0x58d6

000057b6 <.Loc.112.1>:
    57b6:	32 c2       	dint			
    57b8:	03 43       	nop			

000057ba <.Loc.112.1>:
    57ba:	7c 40 0f 00 	mov.b	#15,	r12	;#0x000f
    57be:	b0 12 c6 59 	call	#22982		;#0x59c6
    57c2:	b0 12 aa 59 	call	#22954		;#0x59aa

000057c6 <.Loc.112.1>:
    57c6:	03 43       	nop			
    57c8:	32 d2       	eint			
    57ca:	03 43       	nop			

000057cc <.Loc.113.1>:
    57cc:	21 53       	incd	r1		;

000057ce <.LCFI11>:
    57ce:	30 41       	ret			

000057d0 <__app_reboot>:
    57d0:	f2 f0 ef ff 	and.b	#-17,	&0x0222	;#0xffef
    57d4:	22 02 

000057d6 <.Loc.121.1>:
    57d6:	f2 d0 10 00 	bis.b	#16,	&0x0224	;#0x0010
    57da:	24 02 

000057dc <.Loc.121.1>:
    57dc:	f2 f0 ef ff 	and.b	#-17,	&0x0222	;#0xffef
    57e0:	22 02 

000057e2 <.Loc.121.1>:
    57e2:	30 41       	ret			

000057e4 <ACCEL_singleSample_>:
    57e4:	2a 15       	pushm	#3,	r10	;16-bit words

000057e6 <.LCFI12>:
    57e6:	09 4c       	mov	r12,	r9	;

000057e8 <.Loc.146.1>:
    57e8:	1a 42 0a 45 	mov	&0x450a,r10	;0x450a

000057ec <.LVL103>:
    57ec:	0c 4a       	mov	r10,	r12	;

000057ee <.LVL104>:
    57ee:	5c 0e       	rlam	#4,	r12	;

000057f0 <.Loc.148.1>:
    57f0:	38 40 04 54 	mov	#21508,	r8	;#0x5404
    57f4:	7d 40 55 00 	mov.b	#85,	r13	;#0x0055
    57f8:	0c 5a       	add	r10,	r12	;
    57fa:	88 12       	call	r8		;

000057fc <.Loc.148.1>:
    57fc:	c9 4c 00 00 	mov.b	r12,	0(r9)	;

00005800 <.Loc.149.1>:
    5800:	0c 4a       	mov	r10,	r12	;
    5802:	3d 40 21 01 	mov	#289,	r13	;#0x0121
    5806:	b0 12 5c 69 	call	#26972		;#0x695c

0000580a <.Loc.149.1>:
    580a:	7d 40 55 00 	mov.b	#85,	r13	;#0x0055
    580e:	88 12       	call	r8		;

00005810 <.Loc.149.1>:
    5810:	c9 4c 01 00 	mov.b	r12,	1(r9)	;

00005814 <.Loc.150.1>:
    5814:	0c 4a       	mov	r10,	r12	;
    5816:	3d 40 31 13 	mov	#4913,	r13	;#0x1331
    581a:	b0 12 5c 69 	call	#26972		;#0x695c

0000581e <.Loc.150.1>:
    581e:	7d 40 55 00 	mov.b	#85,	r13	;#0x0055
    5822:	88 12       	call	r8		;

00005824 <.Loc.150.1>:
    5824:	c9 4c 02 00 	mov.b	r12,	2(r9)	;

00005828 <.LVL110>:
    5828:	1a 53       	inc	r10		;

0000582a <.LVL111>:
    582a:	82 4a 0a 45 	mov	r10,	&0x450a	;

0000582e <.Loc.152.1>:
    582e:	28 17       	popm	#3,	r10	;16-bit words

00005830 <.LCFI13>:
    5830:	30 41       	ret			

00005832 <task_sample>:
    5832:	1a 15       	pushm	#2,	r10	;16-bit words

00005834 <.LCFI14>:
    5834:	21 82       	sub	#4,	r1	;r2 As==10

00005836 <.LCFI15>:
    5836:	0a 4c       	mov	r12,	r10	;

00005838 <.Loc.249.1>:
    5838:	19 4c 10 00 	mov	16(r12),r9	;0x00010

0000583c <.Loc.251.1>:
    583c:	0c 41       	mov	r1,	r12	;

0000583e <.LVL114>:
    583e:	1c 53       	inc	r12		;
    5840:	b0 12 e4 57 	call	#22500		;#0x57e4

00005844 <.Loc.253.1>:
    5844:	0d 49       	mov	r9,	r13	;
    5846:	5d 02       	rlam	#1,	r13	;
    5848:	0d 59       	add	r9,	r13	;
    584a:	0d 5a       	add	r10,	r13	;
    584c:	dd 41 01 00 	mov.b	1(r1),	18(r13)	; 0x0012
    5850:	12 00 

00005852 <.Loc.254.1>:
    5852:	dd 41 02 00 	mov.b	2(r1),	19(r13)	; 0x0013
    5856:	13 00 

00005858 <.Loc.255.1>:
    5858:	dd 41 03 00 	mov.b	3(r1),	20(r13)	; 0x0014
    585c:	14 00 

0000585e <.Loc.256.1>:
    585e:	19 53       	inc	r9		;

00005860 <.Loc.257.1>:
    5860:	6c 43       	mov.b	#2,	r12	;r3 As==10
    5862:	0c 99       	cmp	r9,	r12	;
    5864:	07 28       	jnc	$+16     	;abs 0x5874

00005866 <.Loc.257.1>:
    5866:	8a 49 10 00 	mov	r9,	16(r10)	; 0x0010

0000586a <.Loc.261.1>:
    586a:	3c 40 32 58 	mov	#22578,	r12	;#0x5832

0000586e <.L59>:
    586e:	21 52       	add	#4,	r1	;r2 As==10

00005870 <.LCFI16>:
    5870:	19 17       	popm	#2,	r10	;16-bit words

00005872 <.LCFI17>:
    5872:	30 41       	ret			

00005874 <.L60>:
    5874:	8a 43 10 00 	mov	#0,	16(r10)	;r3 As==00, 0x0010

00005878 <.Loc.266.1>:
    5878:	3c 40 86 54 	mov	#21638,	r12	;#0x5486
    587c:	f8 3f       	jmp	$-14     	;abs 0x586e

0000587e <task_warmup>:
    587e:	0a 15       	pushm	#1,	r10	;16-bit words

00005880 <.LCFI19>:
    5880:	21 82       	sub	#4,	r1	;r2 As==10

00005882 <.LCFI20>:
    5882:	0a 4c       	mov	r12,	r10	;

00005884 <.Loc.230.1>:
    5884:	6c 43       	mov.b	#2,	r12	;r3 As==10

00005886 <.LVL118>:
    5886:	1c 9a 06 00 	cmp	6(r10),	r12	;
    588a:	0b 28       	jnc	$+24     	;abs 0x58a2

0000588c <.LBB8>:
    588c:	0c 41       	mov	r1,	r12	;
    588e:	1c 53       	inc	r12		;
    5890:	b0 12 e4 57 	call	#22500		;#0x57e4

00005894 <.Loc.235.1>:
    5894:	9a 53 06 00 	inc	6(r10)		;

00005898 <.LVL121>:
    5898:	3c 40 7e 58 	mov	#22654,	r12	;#0x587e

0000589c <.L62>:
    589c:	21 52       	add	#4,	r1	;r2 As==10

0000589e <.LCFI21>:
    589e:	0a 17       	popm	#1,	r10	;16-bit words

000058a0 <.LCFI22>:
    58a0:	30 41       	ret			

000058a2 <.L63>:
    58a2:	8a 43 0e 00 	mov	#0,	14(r10)	;r3 As==00, 0x000e

000058a6 <.Loc.241.1>:
    58a6:	3c 40 32 58 	mov	#22578,	r12	;#0x5832
    58aa:	f8 3f       	jmp	$-14     	;abs 0x589c

000058ac <__scheduler_boot_init>:
    58ac:	0a 15       	pushm	#1,	r10	;16-bit words

000058ae <.LCFI0>:
    58ae:	3c 40 56 46 	mov	#18006,	r12	;#0x4656
    58b2:	b0 12 c8 64 	call	#25800		;#0x64c8

000058b6 <.Loc.65.1>:
    58b6:	7a 40 40 00 	mov.b	#64,	r10	;#0x0040

000058ba <.L2>:
    58ba:	0c 4a       	mov	r10,	r12	;
    58bc:	7d 40 1a 00 	mov.b	#26,	r13	;#0x001a
    58c0:	b0 12 5c 69 	call	#26972		;#0x695c
    58c4:	1c 4c 62 46 	mov	18018(r12),r12	;0x04662

000058c8 <.LVL3>:
    58c8:	3a 53       	add	#-1,	r10	;r3 As==11

000058ca <.Loc.67.1>:
    58ca:	0a 93       	cmp	#0,	r10	;r3 As==00
    58cc:	f6 23       	jnz	$-18     	;abs 0x58ba

000058ce <.Loc.71.1>:
    58ce:	
000058d0 <L0^A>:
    58d0:	
000058d2 <.Loc.72.1>:
    58d2:	0a 17       	popm	#1,	r10	;16-bit words

000058d4 <.LCFI1>:
    58d4:	30 41       	ret			

000058d6 <__create_thread>:
    58d6:	3a 15       	pushm	#4,	r10	;16-bit words

000058d8 <.LCFI2>:
    58d8:	4a 4c       	mov.b	r12,	r10	;
    58da:	09 4d       	mov	r13,	r9	;
    58dc:	07 4e       	mov	r14,	r7	;
    58de:	08 4f       	mov	r15,	r8	;

000058e0 <.Loc.79.1>:
    58e0:	0c 4a       	mov	r10,	r12	;

000058e2 <.LVL6>:
    58e2:	7d 40 1a 00 	mov.b	#26,	r13	;#0x001a

000058e6 <.LVL7>:
    58e6:	b0 12 5c 69 	call	#26972		;#0x695c

000058ea <.LVL8>:
    58ea:	cc 4a 60 46 	mov.b	r10,	18016(r12); 0x4660

000058ee <.Loc.80.1>:
    58ee:	0c 4a       	mov	r10,	r12	;
    58f0:	7d 40 1a 00 	mov.b	#26,	r13	;#0x001a
    58f4:	b0 12 5c 69 	call	#26972		;#0x695c
    58f8:	8c 49 64 46 	mov	r9,	18020(r12); 0x4664

000058fc <.Loc.81.1>:
    58fc:	0c 4a       	mov	r10,	r12	;
    58fe:	7d 40 1a 00 	mov.b	#26,	r13	;#0x001a
    5902:	b0 12 5c 69 	call	#26972		;#0x695c
    5906:	8c 49 66 46 	mov	r9,	18022(r12); 0x4666

0000590a <.Loc.82.1>:
    590a:	0c 4a       	mov	r10,	r12	;
    590c:	7d 40 1a 00 	mov.b	#26,	r13	;#0x001a
    5910:	b0 12 5c 69 	call	#26972		;#0x695c
    5914:	bc 42 62 46 	mov	#8,	18018(r12);r2 As==11, 0x4662

00005918 <.Loc.85.1>:
    5918:	0c 4a       	mov	r10,	r12	;
    591a:	7d 40 1a 00 	mov.b	#26,	r13	;#0x001a
    591e:	b0 12 5c 69 	call	#26972		;#0x695c
    5922:	8c 47 6a 46 	mov	r7,	18026(r12); 0x466a

00005926 <.Loc.86.1>:
    5926:	0c 4a       	mov	r10,	r12	;
    5928:	7d 40 1a 00 	mov.b	#26,	r13	;#0x001a
    592c:	b0 12 5c 69 	call	#26972		;#0x695c
    5930:	8c 48 6c 46 	mov	r8,	18028(r12); 0x466c

00005934 <.Loc.87.1>:
    5934:	0c 4a       	mov	r10,	r12	;
    5936:	7d 40 1a 00 	mov.b	#26,	r13	;#0x001a
    593a:	b0 12 5c 69 	call	#26972		;#0x695c
    593e:	cc 43 6e 46 	mov.b	#0,	18030(r12);r3 As==00, 0x466e

00005942 <.Loc.88.1>:
    5942:	0c 4a       	mov	r10,	r12	;
    5944:	7d 40 1a 00 	mov.b	#26,	r13	;#0x001a
    5948:	b0 12 5c 69 	call	#26972		;#0x695c
    594c:	9c 41 0a 00 	mov	10(r1),	18032(r12);0x0000a, 0x4670
    5950:	70 46 

00005952 <.Loc.89.1>:
    5952:	37 17       	popm	#4,	r10	;16-bit words

00005954 <.LCFI3>:
    5954:	30 41       	ret			

00005956 <__stop_thread>:
    5956:	0a 15       	pushm	#1,	r10	;16-bit words

00005958 <.LCFI4>:
    5958:	0a 4c       	mov	r12,	r10	;

0000595a <.Loc.93.1>:
    595a:	3d 40 56 46 	mov	#18006,	r13	;#0x4656
    595e:	6c 4c       	mov.b	@r12,	r12	;

00005960 <.LVL17>:
    5960:	b0 12 0e 65 	call	#25870		;#0x650e

00005964 <.Loc.94.1>:
    5964:	ba 42 02 00 	mov	#8,	2(r10)	;r2 As==11

00005968 <.Loc.95.1>:
    5968:	0a 17       	popm	#1,	r10	;16-bit words

0000596a <.LCFI5>:
    596a:	30 41       	ret			

0000596c <__evict_thread>:
    596c:	0a 15       	pushm	#1,	r10	;16-bit words

0000596e <.LCFI6>:
    596e:	0a 4c       	mov	r12,	r10	;

00005970 <.Loc.99.1>:
    5970:	3d 40 56 46 	mov	#18006,	r13	;#0x4656
    5974:	6c 4c       	mov.b	@r12,	r12	;

00005976 <.LVL20>:
    5976:	b0 12 0e 65 	call	#25870		;#0x650e

0000597a <.Loc.100.1>:
    597a:	8a 43 06 00 	mov	#0,	6(r10)	;r3 As==00

0000597e <.Loc.101.1>:
    597e:	ba 42 02 00 	mov	#8,	2(r10)	;r2 As==11

00005982 <.Loc.102.1>:
    5982:	0a 17       	popm	#1,	r10	;16-bit words

00005984 <.LCFI7>:
    5984:	30 41       	ret			

00005986 <__set_sing_timer>:
    5986:	8c 4d 12 00 	mov	r13,	18(r12)	; 0x0012

0000598a <.Loc.106.1>:
    598a:	30 41       	ret			

0000598c <__set_expr_timer>:
    598c:	8c 4d 16 00 	mov	r13,	22(r12)	; 0x0016

00005990 <.Loc.112.1>:
    5990:	30 41       	ret			

00005992 <__set_pdc_timer>:
    5992:	8c 4d 14 00 	mov	r13,	20(r12)	; 0x0014

00005996 <.Loc.118.1>:
    5996:	30 41       	ret			

00005998 <__set_pdc_period>:
    5998:	8c 4d 18 00 	mov	r13,	24(r12)	; 0x0018

0000599c <.Loc.123.1>:
    599c:	30 41       	ret			

0000599e <__get_pdc_timer>:
    599e:	1c 4c 14 00 	mov	20(r12),r12	;0x00014

000059a2 <.LVL27>:
    59a2:	30 41       	ret			

000059a4 <__get_pdc_period>:
    59a4:	1c 4c 18 00 	mov	24(r12),r12	;0x00018

000059a8 <.LVL29>:
    59a8:	30 41       	ret			

000059aa <__start_thread>:
    59aa:	0a 15       	pushm	#1,	r10	;16-bit words

000059ac <.LCFI8>:
    59ac:	0a 4c       	mov	r12,	r10	;

000059ae <.Loc.136.1>:
    59ae:	9c 4c 04 00 	mov	4(r12),	6(r12)	;
    59b2:	06 00 

000059b4 <.Loc.137.1>:
    59b4:	3d 40 56 46 	mov	#18006,	r13	;#0x4656
    59b8:	6c 4c       	mov.b	@r12,	r12	;

000059ba <.LVL31>:
    59ba:	b0 12 ee 64 	call	#25838		;#0x64ee

000059be <.Loc.138.1>:
    59be:	9a 43 02 00 	mov	#1,	2(r10)	;r3 As==01

000059c2 <.Loc.139.1>:
    59c2:	0a 17       	popm	#1,	r10	;16-bit words

000059c4 <.LCFI9>:
    59c4:	30 41       	ret			

000059c6 <__get_thread>:
    59c6:	3c f0 ff 00 	and	#255,	r12	;#0x00ff
    59ca:	7d 40 1a 00 	mov.b	#26,	r13	;#0x001a
    59ce:	b0 12 5c 69 	call	#26972		;#0x695c

000059d2 <.LVL34>:
    59d2:	3c 50 60 46 	add	#18016,	r12	;#0x4660
    59d6:	30 41       	ret			

000059d8 <__scheduler_run>:
    59d8:	b0 12 66 62 	call	#25190		;#0x6266

000059dc <.Loc.171.1>:
    59dc:	f2 d2 02 02 	bis.b	#8,	&0x0202	;r2 As==11

000059e0 <.Loc.171.1>:
    59e0:	f2 c2 02 02 	bic.b	#8,	&0x0202	;r2 As==11

000059e4 <.LBB8>:
    59e4:	82 93 54 46 	cmp	#0,	&0x4654	;r3 As==00
    59e8:	04 24       	jz	$+10     	;abs 0x59f2

000059ea <.Loc.157.1>:
    59ea:	1c 42 54 46 	mov	&0x4654,r12	;0x4654
    59ee:	b0 12 7a 5a 	call	#23162		;#0x5a7a

000059f2 <.L16>:
    59f2:	f2 d2 02 02 	bis.b	#8,	&0x0202	;r2 As==11

000059f6 <.Loc.184.1>:
    59f6:	f2 c2 02 02 	bic.b	#8,	&0x0202	;r2 As==11

000059fa <.Loc.185.1>:
    59fa:	b0 12 7e 5b 	call	#23422		;#0x5b7e

000059fe <.L31>:
    59fe:	03 43       	nop			
    5a00:	32 d2       	eint			
    5a02:	03 43       	nop			

00005a04 <.L20>:
    5a04:	5c 42 00 1c 	mov.b	&0x1c00,r12	;0x1c00
    5a08:	0c 93       	cmp	#0,	r12	;r3 As==00
    5a0a:	0e 24       	jz	$+30     	;abs 0x5a28
    5a0c:	1c 93       	cmp	#1,	r12	;r3 As==01
    5a0e:	fa 23       	jnz	$-10     	;abs 0x5a04

00005a10 <.L19>:
    5a10:	82 93 54 46 	cmp	#0,	&0x4654	;r3 As==00
    5a14:	21 24       	jz	$+68     	;abs 0x5a58

00005a16 <.Loc.207.1>:
    5a16:	f2 c2 02 02 	bic.b	#8,	&0x0202	;r2 As==11

00005a1a <.Loc.207.1>:
    5a1a:	1c 42 54 46 	mov	&0x4654,r12	;0x4654
    5a1e:	b0 12 7a 5a 	call	#23162		;#0x5a7a

00005a22 <.Loc.211.1>:
    5a22:	c2 43 00 1c 	mov.b	#0,	&0x1c00	;r3 As==00

00005a26 <.Loc.212.1>:
    5a26:	ee 3f       	jmp	$-34     	;abs 0x5a04

00005a28 <.L18>:
    5a28:	f2 d2 02 02 	bis.b	#8,	&0x0202	;r2 As==11

00005a2c <.LBB10>:
    5a2c:	3c 40 56 46 	mov	#18006,	r12	;#0x4656
    5a30:	b0 12 36 65 	call	#25910		;#0x6536
    5a34:	4e 4c       	mov.b	r12,	r14	;
    5a36:	3c f0 ff 00 	and	#255,	r12	;#0x00ff

00005a3a <.LVL40>:
    5a3a:	4d 43       	clr.b	r13		;

00005a3c <.Loc.144.1>:
    5a3c:	4e 93       	cmp.b	#0,	r14	;r3 As==00
    5a3e:	07 24       	jz	$+16     	;abs 0x5a4e

00005a40 <.Loc.145.1>:
    5a40:	7d 40 1a 00 	mov.b	#26,	r13	;#0x001a
    5a44:	b0 12 5c 69 	call	#26972		;#0x695c

00005a48 <.LVL41>:
    5a48:	0d 4c       	mov	r12,	r13	;
    5a4a:	3d 50 60 46 	add	#18016,	r13	;#0x4660

00005a4e <.L21>:
    5a4e:	82 4d 54 46 	mov	r13,	&0x4654	;

00005a52 <.Loc.201.1>:
    5a52:	d2 43 00 1c 	mov.b	#1,	&0x1c00	;r3 As==01
    5a56:	dc 3f       	jmp	$-70     	;abs 0x5a10

00005a58 <.L22>:
    5a58:	c2 43 00 1c 	mov.b	#0,	&0x1c00	;r3 As==00

00005a5c <.Loc.215.1>:
    5a5c:	32 c2       	dint			
    5a5e:	03 43       	nop			

00005a60 <.LBB12>:
    5a60:	3c 40 56 46 	mov	#18006,	r12	;#0x4656
    5a64:	b0 12 36 65 	call	#25910		;#0x6536

00005a68 <.LVL42>:
    5a68:	4c 93       	cmp.b	#0,	r12	;r3 As==00
    5a6a:	cc 23       	jnz	$-102    	;abs 0x5a04

00005a6c <.LBE12>:
    5a6c:	f2 c2 02 02 	bic.b	#8,	&0x0202	;r2 As==11

00005a70 <.Loc.219.1>:
    5a70:	03 43       	nop			
    5a72:	32 d0 d8 00 	bis	#216,	r2	;#0x00d8
    5a76:	03 43       	nop			

00005a78 <.Loc.222.1>:
    5a78:	c2 3f       	jmp	$-122    	;abs 0x59fe

00005a7a <__tick>:
    5a7a:	1a 15       	pushm	#2,	r10	;16-bit words

00005a7c <.LCFI0>:
    5a7c:	0a 4c       	mov	r12,	r10	;

00005a7e <.Loc.53.1>:
    5a7e:	
00005a80 <L0^A>:
    5a80:	02 00       	mova	@r0,	r2	;

00005a82 <.LVL1>:
    5a82:	2c 93       	cmp	#2,	r12	;r3 As==10
    5a84:	3f 24       	jz	$+128    	;abs 0x5b04
    5a86:	2c 92       	cmp	#4,	r12	;r2 As==10
    5a88:	4d 24       	jz	$+156    	;abs 0x5b24
    5a8a:	1c 93       	cmp	#1,	r12	;r3 As==01
    5a8c:	67 20       	jnz	$+208    	;abs 0x5b5c

00005a8e <.LBB5>:
    5a8e:	f2 d0 40 00 	bis.b	#64,	&0x0222	;#0x0040
    5a92:	22 02 

00005a94 <.Loc.40.1>:
    5a94:	5f 4a 0e 00 	mov.b	14(r10),r15	;0x0000e

00005a98 <.Loc.43.1>:
    5a98:	5c 4a 0e 00 	mov.b	14(r10),r12	;0x0000e
    5a9c:	5c e3       	xor.b	#1,	r12	;r3 As==01
    5a9e:	3c f0 ff 00 	and	#255,	r12	;#0x00ff

00005aa2 <.Loc.43.1>:
    5aa2:	5c 02       	rlam	#1,	r12	;
    5aa4:	0c 5a       	add	r10,	r12	;
    5aa6:	5f 02       	rlam	#1,	r15	;
    5aa8:	0f 5a       	add	r10,	r15	;
    5aaa:	1e 4a 10 00 	mov	16(r10),r14	;0x00010
    5aae:	5e 03       	rrum	#1,	r14	;
    5ab0:	1d 4c 0a 00 	mov	10(r12),r13	;0x0000a
    5ab4:	1c 4f 0a 00 	mov	10(r15),r12	;0x0000a
    5ab8:	b0 12 40 64 	call	#25664		;#0x6440

00005abc <.Loc.45.1>:
    5abc:	f2 f0 bf ff 	and.b	#-65,	&0x0222	;#0xffbf
    5ac0:	22 02 

00005ac2 <.LBE5>:
    5ac2:	f2 d0 10 00 	bis.b	#16,	&0x0202	;#0x0010
    5ac6:	02 02 

00005ac8 <.Loc.60.1>:
    5ac8:	5c 4a 0f 00 	mov.b	15(r10),r12	;0x0000f
    5acc:	5c e3       	xor.b	#1,	r12	;r3 As==01
    5ace:	3c f0 ff 00 	and	#255,	r12	;#0x00ff

00005ad2 <.Loc.63.1>:
    5ad2:	3c 50 05 00 	add	#5,	r12	;
    5ad6:	5c 02       	rlam	#1,	r12	;
    5ad8:	0c 5a       	add	r10,	r12	;
    5ada:	29 4c       	mov	@r12,	r9	;

00005adc <.LVL5>:
    5adc:	1d 4a 06 00 	mov	6(r10),	r13	;

00005ae0 <.Loc.66.1>:
    5ae0:	1d 9a 04 00 	cmp	4(r10),	r13	;
    5ae4:	3d 20       	jnz	$+124    	;abs 0x5b60

00005ae6 <.LBB7>:
    5ae6:	0c 4a       	mov	r10,	r12	;
    5ae8:	b0 12 1a 63 	call	#25370		;#0x631a

00005aec <.LVL6>:
    5aec:	0d 4c       	mov	r12,	r13	;
    5aee:	0c 49       	mov	r9,	r12	;

00005af0 <.LVL7>:
    5af0:	1e 4a 04 00 	mov	4(r10),	r14	;
    5af4:	8e 12       	call	r14		;

00005af6 <.L17>:
    5af6:	8a 4c 08 00 	mov	r12,	8(r10)	;

00005afa <.Loc.76.1>:
    5afa:	aa 43 02 00 	mov	#2,	2(r10)	;r3 As==10

00005afe <.Loc.78.1>:
    5afe:	f2 f0 ef ff 	and.b	#-17,	&0x0202	;#0xffef
    5b02:	02 02 

00005b04 <.L2>:
    5b04:	f2 d0 20 00 	bis.b	#32,	&0x0222	;#0x0020
    5b08:	22 02 

00005b0a <.Loc.82.1>:
    5b0a:	0c 4a       	mov	r10,	r12	;
    5b0c:	b0 12 48 63 	call	#25416		;#0x6348

00005b10 <.Loc.86.1>:
    5b10:	9a 4a 08 00 	mov	8(r10),	6(r10)	;
    5b14:	06 00 

00005b16 <.Loc.88.1>:
    5b16:	5c 4a 0e 00 	mov.b	14(r10),r12	;0x0000e
    5b1a:	5c e3       	xor.b	#1,	r12	;r3 As==01
    5b1c:	ca 4c 0f 00 	mov.b	r12,	15(r10)	; 0x000f

00005b20 <.Loc.89.1>:
    5b20:	aa 42 02 00 	mov	#4,	2(r10)	;r2 As==10

00005b24 <.L3>:
    5b24:	da 4a 0f 00 	mov.b	15(r10),14(r10)	;0x0000f, 0x000e
    5b28:	0e 00 

00005b2a <.Loc.94.1>:
    5b2a:	f2 f0 df ff 	and.b	#-33,	&0x0222	;#0xffdf
    5b2e:	22 02 

00005b30 <.Loc.94.1>:
    5b30:	f2 d0 20 00 	bis.b	#32,	&0x0222	;#0x0020
    5b34:	22 02 

00005b36 <.Loc.95.1>:
    5b36:	8a 93 06 00 	cmp	#0,	6(r10)	;r3 As==00
    5b3a:	1b 20       	jnz	$+56     	;abs 0x5b72

00005b3c <.Loc.101.1>:
    5b3c:	32 c2       	dint			
    5b3e:	03 43       	nop			

00005b40 <.Loc.103.1>:
    5b40:	0c 4a       	mov	r10,	r12	;
    5b42:	b0 12 fc 62 	call	#25340		;#0x62fc

00005b46 <.Loc.103.1>:
    5b46:	4c 93       	cmp.b	#0,	r12	;r3 As==00
    5b48:	0e 20       	jnz	$+30     	;abs 0x5b66

00005b4a <.Loc.105.1>:
    5b4a:	0c 4a       	mov	r10,	r12	;
    5b4c:	b0 12 56 59 	call	#22870		;#0x5956

00005b50 <.L9>:
    5b50:	03 43       	nop			
    5b52:	32 d2       	eint			
    5b54:	03 43       	nop			

00005b56 <.L10>:
    5b56:	f2 f0 df ff 	and.b	#-33,	&0x0222	;#0xffdf
    5b5a:	22 02 

00005b5c <.L1>:
    5b5c:	19 17       	popm	#2,	r10	;16-bit words

00005b5e <.LCFI1>:
    5b5e:	30 41       	ret			

00005b60 <.L5>:
    5b60:	2c 4c       	mov	@r12,	r12	;
    5b62:	8d 12       	call	r13		;
    5b64:	c8 3f       	jmp	$-110    	;abs 0x5af6

00005b66 <.L8>:
    5b66:	9a 4a 04 00 	mov	4(r10),	6(r10)	;
    5b6a:	06 00 

00005b6c <.Loc.111.1>:
    5b6c:	9a 43 02 00 	mov	#1,	2(r10)	;r3 As==01
    5b70:	ef 3f       	jmp	$-32     	;abs 0x5b50

00005b72 <.L7>:
    5b72:	9a 43 02 00 	mov	#1,	2(r10)	;r3 As==01
    5b76:	ef 3f       	jmp	$-32     	;abs 0x5b56

00005b78 <__timers_init>:
    5b78:	b0 12 1a 66 	call	#26138		;#0x661a

00005b7c <.Loc.64.1>:
    5b7c:	30 41       	ret			

00005b7e <__reboot_timers>:
    5b7e:	30 41       	ret			

00005b80 <clear_wkup_status>:
    5b80:	2a 15       	pushm	#3,	r10	;16-bit words

00005b82 <.LCFI0>:
    5b82:	48 4c       	mov.b	r12,	r8	;

00005b84 <.Loc.100.1>:
    5b84:	3a 40 34 1c 	mov	#7220,	r10	;#0x1c34

00005b88 <.Loc.101.1>:
    5b88:	49 43       	clr.b	r9		;

00005b8a <.L5>:
    5b8a:	ca 98 02 00 	cmp.b	r8,	2(r10)	;
    5b8e:	07 20       	jnz	$+16     	;abs 0x5b9e

00005b90 <.Loc.104.1>:
    5b90:	8a 43 00 00 	mov	#0,	0(r10)	;r3 As==00

00005b94 <.Loc.105.1>:
    5b94:	4e 43       	clr.b	r14		;
    5b96:	4d 43       	clr.b	r13		;
    5b98:	4c 49       	mov.b	r9,	r12	;
    5b9a:	b0 12 d8 66 	call	#26328		;#0x66d8

00005b9e <.L4>:
    5b9e:	4c 49       	mov.b	r9,	r12	;
    5ba0:	5c 53       	inc.b	r12		;
    5ba2:	49 4c       	mov.b	r12,	r9	;

00005ba4 <.LVL5>:
    5ba4:	3a 50 0a 00 	add	#10,	r10	;#0x000a

00005ba8 <.Loc.101.1>:
    5ba8:	7c 90 03 00 	cmp.b	#3,	r12	;
    5bac:	ee 23       	jnz	$-34     	;abs 0x5b8a

00005bae <.Loc.109.1>:
    5bae:	28 17       	popm	#3,	r10	;16-bit words

00005bb0 <.LCFI1>:
    5bb0:	30 41       	ret			

00005bb2 <unpack_wkup_to_local>:
    5bb2:	1a 15       	pushm	#2,	r10	;16-bit words

00005bb4 <.LCFI2>:
    5bb4:	31 80 0a 00 	sub	#10,	r1	;#0x000a

00005bb8 <.LCFI3>:
    5bb8:	49 43       	clr.b	r9		;

00005bba <.L8>:
    5bba:	0a 49       	mov	r9,	r10	;
    5bbc:	5a 06       	rlam	#2,	r10	;
    5bbe:	0a 59       	add	r9,	r10	;
    5bc0:	5a 02       	rlam	#1,	r10	;
    5bc2:	3a 50 34 1c 	add	#7220,	r10	;#0x1c34
    5bc6:	4e 43       	clr.b	r14		;
    5bc8:	4d 49       	mov.b	r9,	r13	;
    5bca:	0c 41       	mov	r1,	r12	;
    5bcc:	b0 12 62 68 	call	#26722		;#0x6862
    5bd0:	7e 40 0a 00 	mov.b	#10,	r14	;#0x000a
    5bd4:	0d 41       	mov	r1,	r13	;
    5bd6:	0c 4a       	mov	r10,	r12	;
    5bd8:	b0 12 a8 69 	call	#27048		;#0x69a8

00005bdc <.LVL9>:
    5bdc:	19 53       	inc	r9		;

00005bde <.Loc.115.1>:
    5bde:	39 90 03 00 	cmp	#3,	r9	;
    5be2:	eb 23       	jnz	$-40     	;abs 0x5bba

00005be4 <.Loc.120.1>:
    5be4:	31 50 0a 00 	add	#10,	r1	;#0x000a

00005be8 <.LCFI4>:
    5be8:	19 17       	popm	#2,	r10	;16-bit words

00005bea <.LCFI5>:
    5bea:	30 41       	ret			

00005bec <refresh_wkup_timers>:
    5bec:	4a 15       	pushm	#5,	r10	;16-bit words

00005bee <.LCFI6>:
    5bee:	3a 40 34 1c 	mov	#7220,	r10	;#0x1c34

00005bf2 <.Loc.125.1>:
    5bf2:	5f 43       	mov.b	#1,	r15	;r3 As==01

00005bf4 <.Loc.127.1>:
    5bf4:	49 43       	clr.b	r9		;

00005bf6 <.L23>:
    5bf6:	9a 93 00 00 	cmp	#1,	0(r10)	;r3 As==01
    5bfa:	56 20       	jnz	$+174    	;abs 0x5ca8

00005bfc <.Loc.133.1>:
    5bfc:	16 4a 04 00 	mov	4(r10),	r6	;
    5c00:	17 4a 06 00 	mov	6(r10),	r7	;

00005c04 <.Loc.133.1>:
    5c04:	0f 93       	cmp	#0,	r15	;r3 As==00
    5c06:	05 24       	jz	$+12     	;abs 0x5c12

00005c08 <.Loc.135.1>:
    5c08:	82 46 5a 1c 	mov	r6,	&0x1c5a	;

00005c0c <.Loc.136.1>:
    5c0c:	d2 4a 02 00 	mov.b	2(r10),	&0x1c5c	;
    5c10:	5c 1c 

00005c12 <.L12>:
    5c12:	b0 12 e6 65 	call	#26086		;#0x65e6

00005c16 <.Loc.141.1>:
    5c16:	0e 46       	mov	r6,	r14	;
    5c18:	0f 47       	mov	r7,	r15	;
    5c1a:	0e 8c       	sub	r12,	r14	;
    5c1c:	0f 7d       	subc	r13,	r15	;

00005c1e <.Loc.141.1>:
    5c1e:	8a 4e 04 00 	mov	r14,	4(r10)	;
    5c22:	8a 4f 06 00 	mov	r15,	6(r10)	;

00005c26 <.Loc.142.1>:
    5c26:	4d 43       	clr.b	r13		;
    5c28:	4c 49       	mov.b	r9,	r12	;
    5c2a:	b0 12 3c 66 	call	#26172		;#0x663c

00005c2e <.Loc.144.1>:
    5c2e:	1c 4a 04 00 	mov	4(r10),	r12	;
    5c32:	1d 4a 06 00 	mov	6(r10),	r13	;

00005c36 <.Loc.144.1>:
    5c36:	07 4d       	mov	r13,	r7	;
    5c38:	0d 93       	cmp	#0,	r13	;r3 As==00
    5c3a:	50 34       	jge	$+162    	;abs 0x5cdc

00005c3c <.Loc.144.1>:
    5c3c:	5e 42 5d 1c 	mov.b	&0x1c5d,r14	;0x1c5d
    5c40:	06 43       	clr	r6		;
    5c42:	06 8e       	sub	r14,	r6	;
    5c44:	0e 46       	mov	r6,	r14	;
    5c46:	0f 46       	mov	r6,	r15	;
    5c48:	4e 18 0f 11 	rpt #15 { rrax.w	r15		;

00005c4c <.Loc.144.1>:
    5c4c:	0f 9d       	cmp	r13,	r15	;
    5c4e:	04 38       	jl	$+10     	;abs 0x5c58

00005c50 <.Loc.144.1>:
    5c50:	0d 9f       	cmp	r15,	r13	;
    5c52:	20 20       	jnz	$+66     	;abs 0x5c94
    5c54:	06 9c       	cmp	r12,	r6	;
    5c56:	1e 2c       	jc	$+62     	;abs 0x5c94

00005c58 <.L32>:
    5c58:	18 42 5a 1c 	mov	&0x1c5a,r8	;0x1c5a
    5c5c:	06 48       	mov	r8,	r6	;
    5c5e:	07 43       	clr	r7		;

00005c60 <.Loc.146.1>:
    5c60:	4e 43       	clr.b	r14		;
    5c62:	4f 43       	clr.b	r15		;
    5c64:	0e 8c       	sub	r12,	r14	;
    5c66:	0f 7d       	subc	r13,	r15	;

00005c68 <.Loc.146.1>:
    5c68:	0f 93       	cmp	#0,	r15	;r3 As==00
    5c6a:	0c 38       	jl	$+26     	;abs 0x5c84
    5c6c:	0f 93       	cmp	#0,	r15	;r3 As==00
    5c6e:	02 20       	jnz	$+6      	;abs 0x5c74
    5c70:	0e 96       	cmp	r6,	r14	;
    5c72:	08 28       	jnc	$+18     	;abs 0x5c84

00005c74 <.L33>:
    5c74:	06 9e       	cmp	r14,	r6	;
    5c76:	17 20       	jnz	$+48     	;abs 0x5ca6
    5c78:	0f 93       	cmp	#0,	r15	;r3 As==00
    5c7a:	15 20       	jnz	$+44     	;abs 0x5ca6

00005c7c <.Loc.146.1>:
    5c7c:	da 92 5c 1c 	cmp.b	&0x1c5c,2(r10)	;0x1c5c
    5c80:	02 00 
    5c82:	12 2c       	jc	$+38     	;abs 0x5ca8

00005c84 <.L17>:
    5c84:	4e 43       	clr.b	r14		;
    5c86:	0e 8c       	sub	r12,	r14	;
    5c88:	82 4e 5a 1c 	mov	r14,	&0x1c5a	;

00005c8c <.L40>:
    5c8c:	d2 4a 02 00 	mov.b	2(r10),	&0x1c5c	;
    5c90:	5c 1c 
    5c92:	09 3c       	jmp	$+20     	;abs 0x5ca6

00005c94 <.L15>:
    5c94:	07 4d       	mov	r13,	r7	;
    5c96:	0d 9f       	cmp	r15,	r13	;
    5c98:	04 38       	jl	$+10     	;abs 0x5ca2
    5c9a:	0f 9d       	cmp	r13,	r15	;
    5c9c:	04 20       	jnz	$+10     	;abs 0x5ca6
    5c9e:	0c 96       	cmp	r6,	r12	;
    5ca0:	02 2c       	jc	$+6      	;abs 0x5ca6

00005ca2 <.L34>:
    5ca2:	8a 43 00 00 	mov	#0,	0(r10)	;r3 As==00

00005ca6 <.L30>:
    5ca6:	4f 43       	clr.b	r15		;

00005ca8 <.L11>:
    5ca8:	4c 49       	mov.b	r9,	r12	;
    5caa:	5c 53       	inc.b	r12		;
    5cac:	49 4c       	mov.b	r12,	r9	;

00005cae <.LVL17>:
    5cae:	3a 50 0a 00 	add	#10,	r10	;#0x000a

00005cb2 <.Loc.127.1>:
    5cb2:	7c 90 03 00 	cmp.b	#3,	r12	;
    5cb6:	9f 23       	jnz	$-192    	;abs 0x5bf6

00005cb8 <.Loc.164.1>:
    5cb8:	0f 93       	cmp	#0,	r15	;r3 As==00
    5cba:	2d 20       	jnz	$+92     	;abs 0x5d16

00005cbc <.Loc.166.1>:
    5cbc:	5d 42 5c 1c 	mov.b	&0x1c5c,r13	;0x1c5c
    5cc0:	4c 43       	clr.b	r12		;

00005cc2 <.LVL18>:
    5cc2:	b0 12 1e 67 	call	#26398		;#0x671e

00005cc6 <.LVL19>:
    5cc6:	1d 42 5a 1c 	mov	&0x1c5a,r13	;0x1c5a
    5cca:	4c 43       	clr.b	r12		;
    5ccc:	b0 12 2c 67 	call	#26412		;#0x672c

00005cd0 <.Loc.171.1>:
    5cd0:	1c 42 5a 1c 	mov	&0x1c5a,r12	;0x1c5a
    5cd4:	b0 12 5c 65 	call	#25948		;#0x655c

00005cd8 <.L10>:
    5cd8:	46 17       	popm	#5,	r10	;16-bit words

00005cda <.LCFI7>:
    5cda:	30 41       	ret			

00005cdc <.L13>:
    5cdc:	0e 4c       	mov	r12,	r14	;
    5cde:	0e dd       	bis	r13,	r14	;
    5ce0:	4f 43       	clr.b	r15		;
    5ce2:	0e 93       	cmp	#0,	r14	;r3 As==00
    5ce4:	e1 27       	jz	$-60     	;abs 0x5ca8

00005ce6 <.Loc.155.1>:
    5ce6:	18 42 5a 1c 	mov	&0x1c5a,r8	;0x1c5a
    5cea:	0e 48       	mov	r8,	r14	;
    5cec:	0f 43       	clr	r15		;

00005cee <.Loc.155.1>:
    5cee:	0d 93       	cmp	#0,	r13	;r3 As==00
    5cf0:	0f 38       	jl	$+32     	;abs 0x5d10
    5cf2:	0d 93       	cmp	#0,	r13	;r3 As==00
    5cf4:	03 20       	jnz	$+8      	;abs 0x5cfc
    5cf6:	07 4c       	mov	r12,	r7	;
    5cf8:	0c 9e       	cmp	r14,	r12	;
    5cfa:	0a 28       	jnc	$+22     	;abs 0x5d10

00005cfc <.L35>:
    5cfc:	07 4c       	mov	r12,	r7	;
    5cfe:	0c 9e       	cmp	r14,	r12	;
    5d00:	d2 23       	jnz	$-90     	;abs 0x5ca6
    5d02:	0d 9f       	cmp	r15,	r13	;
    5d04:	d0 23       	jnz	$-94     	;abs 0x5ca6
    5d06:	4f 43       	clr.b	r15		;

00005d08 <.Loc.155.1>:
    5d08:	da 92 5c 1c 	cmp.b	&0x1c5c,2(r10)	;0x1c5c
    5d0c:	02 00 
    5d0e:	cc 2f       	jc	$-102    	;abs 0x5ca8

00005d10 <.L21>:
    5d10:	82 4c 5a 1c 	mov	r12,	&0x1c5a	;
    5d14:	bb 3f       	jmp	$-136    	;abs 0x5c8c

00005d16 <.L24>:
    5d16:	b0 12 4c 65 	call	#25932		;#0x654c

00005d1a <.LVL24>:
    5d1a:	de 3f       	jmp	$-66     	;abs 0x5cd8

00005d1c <set_wkup_timer>:
    5d1c:	2a 15       	pushm	#3,	r10	;16-bit words

00005d1e <.LCFI9>:
    5d1e:	21 83       	decd	r1		;

00005d20 <.LCFI10>:
    5d20:	49 4c       	mov.b	r12,	r9	;

00005d22 <.Loc.182.1>:
    5d22:	81 4d 00 00 	mov	r13,	0(r1)	;
    5d26:	b0 12 b2 5b 	call	#23474		;#0x5bb2

00005d2a <.LVL27>:
    5d2a:	b0 12 4c 65 	call	#25932		;#0x654c

00005d2e <.Loc.192.1>:
    5d2e:	2e 41       	mov	@r1,	r14	;
    5d30:	82 93 34 1c 	cmp	#0,	&0x1c34	;r3 As==00
    5d34:	22 24       	jz	$+70     	;abs 0x5d7a

00005d36 <.Loc.192.1>:
    5d36:	82 93 3e 1c 	cmp	#0,	&0x1c3e	;r3 As==00
    5d3a:	41 24       	jz	$+132    	;abs 0x5dbe

00005d3c <.Loc.192.1>:
    5d3c:	82 93 48 1c 	cmp	#0,	&0x1c48	;r3 As==00
    5d40:	41 24       	jz	$+132    	;abs 0x5dc4

00005d42 <.Loc.192.1>:
    5d42:	82 4e 4c 1c 	mov	r14,	&0x1c4c	;
    5d46:	82 43 4e 1c 	mov	#0,	&0x1c4e	;r3 As==00

00005d4a <.Loc.216.1>:
    5d4a:	4f 43       	clr.b	r15		;
    5d4c:	4d 43       	clr.b	r13		;
    5d4e:	6c 43       	mov.b	#2,	r12	;r3 As==10
    5d50:	b0 12 3c 66 	call	#26172		;#0x663c

00005d54 <.Loc.217.1>:
    5d54:	c2 49 4a 1c 	mov.b	r9,	&0x1c4a	;

00005d58 <.Loc.218.1>:
    5d58:	4e 49       	mov.b	r9,	r14	;
    5d5a:	4d 43       	clr.b	r13		;
    5d5c:	7c 40 03 00 	mov.b	#3,	r12	;
    5d60:	b0 12 8e 66 	call	#26254		;#0x668e

00005d64 <.L47>:
    5d64:	b0 12 ec 5b 	call	#23532		;#0x5bec

00005d68 <.Loc.222.1>:
    5d68:	4c 43       	clr.b	r12		;
    5d6a:	b0 12 3a 67 	call	#26426		;#0x673a

00005d6e <.Loc.223.1>:
    5d6e:	4c 43       	clr.b	r12		;
    5d70:	b0 12 20 68 	call	#26656		;#0x6820

00005d74 <.Loc.224.1>:
    5d74:	21 53       	incd	r1		;

00005d76 <.LCFI11>:
    5d76:	28 17       	popm	#3,	r10	;16-bit words

00005d78 <.LCFI12>:
    5d78:	30 41       	ret			

00005d7a <.L44>:
    5d7a:	1a 42 34 1c 	mov	&0x1c34,r10	;0x1c34

00005d7e <.Loc.194.1>:
    5d7e:	0d 4a       	mov	r10,	r13	;

00005d80 <.L42>:
    5d80:	0c 4d       	mov	r13,	r12	;
    5d82:	5c 06       	rlam	#2,	r12	;
    5d84:	0c 5d       	add	r13,	r12	;
    5d86:	5c 02       	rlam	#1,	r12	;
    5d88:	08 4c       	mov	r12,	r8	;
    5d8a:	8c 4e 38 1c 	mov	r14,	7224(r12); 0x1c38
    5d8e:	8c 43 3a 1c 	mov	#0,	7226(r12);r3 As==00, 0x1c3a

00005d92 <.Loc.197.1>:
    5d92:	4f 43       	clr.b	r15		;
    5d94:	4d 43       	clr.b	r13		;
    5d96:	4c 4a       	mov.b	r10,	r12	;
    5d98:	b0 12 3c 66 	call	#26172		;#0x663c

00005d9c <.Loc.198.1>:
    5d9c:	c8 49 36 1c 	mov.b	r9,	7222(r8); 0x1c36

00005da0 <.Loc.199.1>:
    5da0:	4e 49       	mov.b	r9,	r14	;
    5da2:	4d 43       	clr.b	r13		;
    5da4:	4c 4a       	mov.b	r10,	r12	;
    5da6:	b0 12 8e 66 	call	#26254		;#0x668e

00005daa <.Loc.200.1>:
    5daa:	98 43 34 1c 	mov	#1,	7220(r8);r3 As==01, 0x1c34

00005dae <.Loc.196.1>:
    5dae:	38 50 34 1c 	add	#7220,	r8	;#0x1c34

00005db2 <.Loc.201.1>:
    5db2:	5e 43       	mov.b	#1,	r14	;r3 As==01
    5db4:	4d 43       	clr.b	r13		;
    5db6:	4c 4a       	mov.b	r10,	r12	;
    5db8:	b0 12 d8 66 	call	#26328		;#0x66d8
    5dbc:	d3 3f       	jmp	$-88     	;abs 0x5d64

00005dbe <.L45>:
    5dbe:	5a 43       	mov.b	#1,	r10	;r3 As==01

00005dc0 <.Loc.194.1>:
    5dc0:	5d 43       	mov.b	#1,	r13	;r3 As==01
    5dc2:	de 3f       	jmp	$-66     	;abs 0x5d80

00005dc4 <.L46>:
    5dc4:	6a 43       	mov.b	#2,	r10	;r3 As==10

00005dc6 <.Loc.194.1>:
    5dc6:	6d 43       	mov.b	#2,	r13	;r3 As==10
    5dc8:	db 3f       	jmp	$-72     	;abs 0x5d80

00005dca <clear_xpr_status>:
    5dca:	4d 4c       	mov.b	r12,	r13	;

00005dcc <.Loc.236.1>:
    5dcc:	5c 92 18 1c 	cmp.b	&0x1c18,r12	;0x1c18
    5dd0:	13 24       	jz	$+40     	;abs 0x5df8

00005dd2 <.Loc.237.1>:
    5dd2:	c2 9d 22 1c 	cmp.b	r13,	&0x1c22	;
    5dd6:	13 24       	jz	$+40     	;abs 0x5dfe

00005dd8 <.Loc.237.1>:
    5dd8:	c2 9d 2c 1c 	cmp.b	r13,	&0x1c2c	;
    5ddc:	0c 20       	jnz	$+26     	;abs 0x5df6

00005dde <.Loc.237.1>:
    5dde:	6c 43       	mov.b	#2,	r12	;r3 As==10

00005de0 <.LVL48>:
    5de0:	6e 43       	mov.b	#2,	r14	;r3 As==10

00005de2 <.L49>:
    5de2:	0d 4e       	mov	r14,	r13	;

00005de4 <.LVL50>:
    5de4:	5d 06       	rlam	#2,	r13	;
    5de6:	0d 5e       	add	r14,	r13	;
    5de8:	5d 02       	rlam	#1,	r13	;
    5dea:	8d 43 16 1c 	mov	#0,	7190(r13);r3 As==00, 0x1c16

00005dee <.Loc.241.1>:
    5dee:	4e 43       	clr.b	r14		;
    5df0:	6d 43       	mov.b	#2,	r13	;r3 As==10
    5df2:	b0 12 d8 66 	call	#26328		;#0x66d8

00005df6 <.L48>:
    5df6:	30 41       	ret			

00005df8 <.L51>:
    5df8:	4c 43       	clr.b	r12		;

00005dfa <.LVL53>:
    5dfa:	4e 43       	clr.b	r14		;
    5dfc:	f2 3f       	jmp	$-26     	;abs 0x5de2

00005dfe <.L52>:
    5dfe:	5c 43       	mov.b	#1,	r12	;r3 As==01

00005e00 <.LVL55>:
    5e00:	5e 43       	mov.b	#1,	r14	;r3 As==01
    5e02:	ef 3f       	jmp	$-32     	;abs 0x5de2

00005e04 <unpack_xpr_to_local>:
    5e04:	1a 15       	pushm	#2,	r10	;16-bit words

00005e06 <.LCFI14>:
    5e06:	31 80 0a 00 	sub	#10,	r1	;#0x000a

00005e0a <.LCFI15>:
    5e0a:	49 43       	clr.b	r9		;

00005e0c <.L54>:
    5e0c:	0a 49       	mov	r9,	r10	;
    5e0e:	5a 06       	rlam	#2,	r10	;
    5e10:	0a 59       	add	r9,	r10	;
    5e12:	5a 02       	rlam	#1,	r10	;
    5e14:	3a 50 16 1c 	add	#7190,	r10	;#0x1c16
    5e18:	6e 43       	mov.b	#2,	r14	;r3 As==10
    5e1a:	4d 49       	mov.b	r9,	r13	;
    5e1c:	0c 41       	mov	r1,	r12	;
    5e1e:	b0 12 62 68 	call	#26722		;#0x6862
    5e22:	7e 40 0a 00 	mov.b	#10,	r14	;#0x000a
    5e26:	0d 41       	mov	r1,	r13	;
    5e28:	0c 4a       	mov	r10,	r12	;
    5e2a:	b0 12 a8 69 	call	#27048		;#0x69a8

00005e2e <.LVL59>:
    5e2e:	19 53       	inc	r9		;

00005e30 <.Loc.252.1>:
    5e30:	39 90 03 00 	cmp	#3,	r9	;
    5e34:	eb 23       	jnz	$-40     	;abs 0x5e0c

00005e36 <.Loc.257.1>:
    5e36:	31 50 0a 00 	add	#10,	r1	;#0x000a

00005e3a <.LCFI16>:
    5e3a:	19 17       	popm	#2,	r10	;16-bit words

00005e3c <.LCFI17>:
    5e3c:	30 41       	ret			

00005e3e <refresh_xpr_timers>:
    5e3e:	6a 15       	pushm	#7,	r10	;16-bit words

00005e40 <.LCFI18>:
    5e40:	47 43       	clr.b	r7		;

00005e42 <.Loc.261.1>:
    5e42:	3a 40 16 1c 	mov	#7190,	r10	;#0x1c16

00005e46 <.Loc.261.1>:
    5e46:	5c 43       	mov.b	#1,	r12	;r3 As==01

00005e48 <.Loc.265.1>:
    5e48:	46 43       	clr.b	r6		;

00005e4a <.L64>:
    5e4a:	9a 93 00 00 	cmp	#1,	0(r10)	;r3 As==01
    5e4e:	4a 20       	jnz	$+150    	;abs 0x5ee4

00005e50 <.Loc.271.1>:
    5e50:	14 4a 04 00 	mov	4(r10),	r4	;
    5e54:	15 4a 06 00 	mov	6(r10),	r5	;

00005e58 <.Loc.271.1>:
    5e58:	0c 93       	cmp	#0,	r12	;r3 As==00
    5e5a:	04 24       	jz	$+10     	;abs 0x5e64

00005e5c <.LVL63>:
    5e5c:	57 4a 02 00 	mov.b	2(r10),	r7	;

00005e60 <.LVL64>:
    5e60:	09 44       	mov	r4,	r9	;
    5e62:	08 45       	mov	r5,	r8	;

00005e64 <.L58>:
    5e64:	b0 12 e6 65 	call	#26086		;#0x65e6

00005e68 <.Loc.278.1>:
    5e68:	0e 44       	mov	r4,	r14	;
    5e6a:	0f 45       	mov	r5,	r15	;
    5e6c:	0e 8c       	sub	r12,	r14	;
    5e6e:	0f 7d       	subc	r13,	r15	;

00005e70 <.Loc.278.1>:
    5e70:	8a 4e 04 00 	mov	r14,	4(r10)	;
    5e74:	8a 4f 06 00 	mov	r15,	6(r10)	;

00005e78 <.Loc.279.1>:
    5e78:	6d 43       	mov.b	#2,	r13	;r3 As==10
    5e7a:	4c 46       	mov.b	r6,	r12	;
    5e7c:	b0 12 3c 66 	call	#26172		;#0x663c

00005e80 <.Loc.281.1>:
    5e80:	4c 43       	clr.b	r12		;
    5e82:	1c 9a 06 00 	cmp	6(r10),	r12	;
    5e86:	10 38       	jl	$+34     	;abs 0x5ea8
    5e88:	8a 93 06 00 	cmp	#0,	6(r10)	;r3 As==00
    5e8c:	03 20       	jnz	$+8      	;abs 0x5e94
    5e8e:	8a 93 04 00 	cmp	#0,	4(r10)	;r3 As==00
    5e92:	0a 20       	jnz	$+22     	;abs 0x5ea8

00005e94 <.L70>:
    5e94:	5c 4a 02 00 	mov.b	2(r10),	r12	;
    5e98:	b0 12 c6 59 	call	#22982		;#0x59c6
    5e9c:	b0 12 6c 59 	call	#22892		;#0x596c

00005ea0 <.Loc.289.1>:
    5ea0:	5c 4a 02 00 	mov.b	2(r10),	r12	;
    5ea4:	b0 12 ca 5d 	call	#24010		;#0x5dca

00005ea8 <.L59>:
    5ea8:	1e 4a 04 00 	mov	4(r10),	r14	;
    5eac:	1d 4a 06 00 	mov	6(r10),	r13	;

00005eb0 <.Loc.292.1>:
    5eb0:	4c 43       	clr.b	r12		;
    5eb2:	0c 9d       	cmp	r13,	r12	;
    5eb4:	04 38       	jl	$+10     	;abs 0x5ebe
    5eb6:	0d 93       	cmp	#0,	r13	;r3 As==00
    5eb8:	14 20       	jnz	$+42     	;abs 0x5ee2
    5eba:	0e 93       	cmp	#0,	r14	;r3 As==00
    5ebc:	12 24       	jz	$+38     	;abs 0x5ee2

00005ebe <.L71>:
    5ebe:	0d 98       	cmp	r8,	r13	;
    5ec0:	0c 38       	jl	$+26     	;abs 0x5eda
    5ec2:	08 9d       	cmp	r13,	r8	;
    5ec4:	02 20       	jnz	$+6      	;abs 0x5eca
    5ec6:	0e 99       	cmp	r9,	r14	;
    5ec8:	08 28       	jnc	$+18     	;abs 0x5eda

00005eca <.L72>:
    5eca:	4c 43       	clr.b	r12		;

00005ecc <.Loc.294.1>:
    5ecc:	0e 99       	cmp	r9,	r14	;
    5ece:	0a 20       	jnz	$+22     	;abs 0x5ee4
    5ed0:	0d 98       	cmp	r8,	r13	;
    5ed2:	08 20       	jnz	$+18     	;abs 0x5ee4

00005ed4 <.Loc.294.1>:
    5ed4:	57 9a 02 00 	cmp.b	2(r10),	r7	;
    5ed8:	05 2c       	jc	$+12     	;abs 0x5ee4

00005eda <.L62>:
    5eda:	57 4a 02 00 	mov.b	2(r10),	r7	;

00005ede <.LVL72>:
    5ede:	09 4e       	mov	r14,	r9	;
    5ee0:	08 4d       	mov	r13,	r8	;

00005ee2 <.L67>:
    5ee2:	4c 43       	clr.b	r12		;

00005ee4 <.L57>:
    5ee4:	4d 46       	mov.b	r6,	r13	;
    5ee6:	5d 53       	inc.b	r13		;
    5ee8:	46 4d       	mov.b	r13,	r6	;

00005eea <.LVL75>:
    5eea:	3a 50 0a 00 	add	#10,	r10	;#0x000a

00005eee <.Loc.265.1>:
    5eee:	7d 90 03 00 	cmp.b	#3,	r13	;
    5ef2:	ab 23       	jnz	$-168    	;abs 0x5e4a

00005ef4 <.Loc.303.1>:
    5ef4:	0c 93       	cmp	#0,	r12	;r3 As==00
    5ef6:	0d 20       	jnz	$+28     	;abs 0x5f12

00005ef8 <.Loc.304.1>:
    5ef8:	4d 47       	mov.b	r7,	r13	;

00005efa <.LVL76>:
    5efa:	6c 43       	mov.b	#2,	r12	;r3 As==10

00005efc <.LVL77>:
    5efc:	b0 12 1e 67 	call	#26398		;#0x671e

00005f00 <.Loc.305.1>:
    5f00:	0d 49       	mov	r9,	r13	;
    5f02:	6c 43       	mov.b	#2,	r12	;r3 As==10
    5f04:	b0 12 2c 67 	call	#26412		;#0x672c

00005f08 <.Loc.308.1>:
    5f08:	0c 49       	mov	r9,	r12	;
    5f0a:	b0 12 72 65 	call	#25970		;#0x6572

00005f0e <.L56>:
    5f0e:	64 17       	popm	#7,	r10	;16-bit words

00005f10 <.LCFI19>:
    5f10:	30 41       	ret			

00005f12 <.L65>:
    5f12:	b0 12 88 65 	call	#25992		;#0x6588

00005f16 <.LVL82>:
    5f16:	fb 3f       	jmp	$-8      	;abs 0x5f0e

00005f18 <set_expire_timer>:
    5f18:	5a 15       	pushm	#6,	r10	;16-bit words

00005f1a <.LCFI21>:
    5f1a:	48 4c       	mov.b	r12,	r8	;
    5f1c:	09 4d       	mov	r13,	r9	;
    5f1e:	07 4e       	mov	r14,	r7	;

00005f20 <.Loc.318.1>:
    5f20:	b0 12 04 5e 	call	#24068		;#0x5e04

00005f24 <.LVL85>:
    5f24:	82 93 16 1c 	cmp	#0,	&0x1c16	;r3 As==00
    5f28:	1b 24       	jz	$+56     	;abs 0x5f60

00005f2a <.Loc.324.1>:
    5f2a:	82 93 20 1c 	cmp	#0,	&0x1c20	;r3 As==00
    5f2e:	43 24       	jz	$+136    	;abs 0x5fb6

00005f30 <.Loc.324.1>:
    5f30:	82 93 2a 1c 	cmp	#0,	&0x1c2a	;r3 As==00
    5f34:	43 24       	jz	$+136    	;abs 0x5fbc

00005f36 <.Loc.324.1>:
    5f36:	0e 49       	mov	r9,	r14	;
    5f38:	0f 47       	mov	r7,	r15	;
    5f3a:	6d 43       	mov.b	#2,	r13	;r3 As==10
    5f3c:	6c 43       	mov.b	#2,	r12	;r3 As==10
    5f3e:	b0 12 3c 66 	call	#26172		;#0x663c

00005f42 <.Loc.348.1>:
    5f42:	4e 48       	mov.b	r8,	r14	;
    5f44:	6d 43       	mov.b	#2,	r13	;r3 As==10
    5f46:	6c 43       	mov.b	#2,	r12	;r3 As==10
    5f48:	b0 12 8e 66 	call	#26254		;#0x668e

00005f4c <.L83>:
    5f4c:	b0 12 3e 5e 	call	#24126		;#0x5e3e

00005f50 <.Loc.352.1>:
    5f50:	6c 43       	mov.b	#2,	r12	;r3 As==10
    5f52:	b0 12 3a 67 	call	#26426		;#0x673a

00005f56 <.Loc.353.1>:
    5f56:	6c 43       	mov.b	#2,	r12	;r3 As==10
    5f58:	b0 12 20 68 	call	#26656		;#0x6820

00005f5c <.Loc.354.1>:
    5f5c:	55 17       	popm	#6,	r10	;16-bit words

00005f5e <.LCFI22>:
    5f5e:	30 41       	ret			

00005f60 <.L80>:
    5f60:	1a 42 16 1c 	mov	&0x1c16,r10	;0x1c16

00005f64 <.Loc.326.1>:
    5f64:	06 4a       	mov	r10,	r6	;

00005f66 <.L78>:
    5f66:	35 40 e6 65 	mov	#26086,	r5	;#0x65e6
    5f6a:	85 12       	call	r5		;

00005f6c <.Loc.328.1>:
    5f6c:	0e 46       	mov	r6,	r14	;
    5f6e:	5e 06       	rlam	#2,	r14	;
    5f70:	0e 56       	add	r6,	r14	;
    5f72:	5e 02       	rlam	#1,	r14	;
    5f74:	06 4e       	mov	r14,	r6	;

00005f76 <.Loc.328.1>:
    5f76:	0c 59       	add	r9,	r12	;
    5f78:	8e 4c 1a 1c 	mov	r12,	7194(r14); 0x1c1a
    5f7c:	0d 67       	addc	r7,	r13	;
    5f7e:	8e 4d 1c 1c 	mov	r13,	7196(r14); 0x1c1c

00005f82 <.Loc.329.1>:
    5f82:	85 12       	call	r5		;

00005f84 <.Loc.329.1>:
    5f84:	0e 4c       	mov	r12,	r14	;
    5f86:	0e 59       	add	r9,	r14	;
    5f88:	0f 4d       	mov	r13,	r15	;
    5f8a:	0f 67       	addc	r7,	r15	;
    5f8c:	6d 43       	mov.b	#2,	r13	;r3 As==10
    5f8e:	4c 4a       	mov.b	r10,	r12	;
    5f90:	b0 12 3c 66 	call	#26172		;#0x663c

00005f94 <.Loc.330.1>:
    5f94:	c6 48 18 1c 	mov.b	r8,	7192(r6); 0x1c18

00005f98 <.Loc.331.1>:
    5f98:	4e 48       	mov.b	r8,	r14	;
    5f9a:	6d 43       	mov.b	#2,	r13	;r3 As==10
    5f9c:	4c 4a       	mov.b	r10,	r12	;
    5f9e:	b0 12 8e 66 	call	#26254		;#0x668e

00005fa2 <.Loc.332.1>:
    5fa2:	96 43 16 1c 	mov	#1,	7190(r6);r3 As==01, 0x1c16

00005fa6 <.Loc.328.1>:
    5fa6:	36 50 16 1c 	add	#7190,	r6	;#0x1c16

00005faa <.Loc.333.1>:
    5faa:	5e 43       	mov.b	#1,	r14	;r3 As==01
    5fac:	6d 43       	mov.b	#2,	r13	;r3 As==10
    5fae:	4c 4a       	mov.b	r10,	r12	;
    5fb0:	b0 12 d8 66 	call	#26328		;#0x66d8
    5fb4:	cb 3f       	jmp	$-104    	;abs 0x5f4c

00005fb6 <.L81>:
    5fb6:	5a 43       	mov.b	#1,	r10	;r3 As==01

00005fb8 <.Loc.326.1>:
    5fb8:	56 43       	mov.b	#1,	r6	;r3 As==01
    5fba:	d5 3f       	jmp	$-84     	;abs 0x5f66

00005fbc <.L82>:
    5fbc:	6a 43       	mov.b	#2,	r10	;r3 As==10

00005fbe <.Loc.326.1>:
    5fbe:	66 43       	mov.b	#2,	r6	;r3 As==10
    5fc0:	d2 3f       	jmp	$-90     	;abs 0x5f66

00005fc2 <stop_expire_timer>:
    5fc2:	0a 15       	pushm	#1,	r10	;16-bit words

00005fc4 <.LCFI24>:
    5fc4:	4a 4c       	mov.b	r12,	r10	;

00005fc6 <.Loc.361.1>:
    5fc6:	b0 12 04 5e 	call	#24068		;#0x5e04

00005fca <.LVL104>:
    5fca:	4c 4a       	mov.b	r10,	r12	;
    5fcc:	b0 12 ca 5d 	call	#24010		;#0x5dca

00005fd0 <.Loc.366.1>:
    5fd0:	b0 12 3e 5e 	call	#24126		;#0x5e3e

00005fd4 <.Loc.368.1>:
    5fd4:	6c 43       	mov.b	#2,	r12	;r3 As==10
    5fd6:	b0 12 3a 67 	call	#26426		;#0x673a

00005fda <.Loc.369.1>:
    5fda:	6c 43       	mov.b	#2,	r12	;r3 As==10
    5fdc:	b0 12 20 68 	call	#26656		;#0x6820

00005fe0 <.Loc.371.1>:
    5fe0:	0a 17       	popm	#1,	r10	;16-bit words

00005fe2 <.LCFI25>:
    5fe2:	30 41       	ret			

00005fe4 <unpack_pdc_to_local>:
    5fe4:	31 80 0a 00 	sub	#10,	r1	;#0x000a

00005fe8 <.LCFI26>:
    5fe8:	5e 43       	mov.b	#1,	r14	;r3 As==01
    5fea:	4d 43       	clr.b	r13		;
    5fec:	0c 41       	mov	r1,	r12	;
    5fee:	b0 12 62 68 	call	#26722		;#0x6862
    5ff2:	7e 40 0a 00 	mov.b	#10,	r14	;#0x000a
    5ff6:	0d 41       	mov	r1,	r13	;
    5ff8:	3c 40 0c 1c 	mov	#7180,	r12	;#0x1c0c
    5ffc:	b0 12 a8 69 	call	#27048		;#0x69a8

00006000 <.Loc.383.1>:
    6000:	31 50 0a 00 	add	#10,	r1	;#0x000a

00006004 <.LCFI27>:
    6004:	30 41       	ret			

00006006 <refresh_pdc_timers>:
    6006:	2a 15       	pushm	#3,	r10	;16-bit words

00006008 <.LCFI28>:
    6008:	92 93 0c 1c 	cmp	#1,	&0x1c0c	;r3 As==01
    600c:	7d 20       	jnz	$+252    	;abs 0x6108

0000600e <.Loc.463.1>:
    600e:	18 42 10 1c 	mov	&0x1c10,r8	;0x1c10
    6012:	19 42 12 1c 	mov	&0x1c12,r9	;0x1c12

00006016 <.Loc.465.1>:
    6016:	82 48 52 1c 	mov	r8,	&0x1c52	;

0000601a <.Loc.466.1>:
    601a:	d2 42 0e 1c 	mov.b	&0x1c0e,&0x1c54	;0x1c0e
    601e:	54 1c 

00006020 <.Loc.467.1>:
    6020:	b0 12 e6 65 	call	#26086		;#0x65e6

00006024 <.Loc.471.1>:
    6024:	0e 48       	mov	r8,	r14	;
    6026:	0f 49       	mov	r9,	r15	;
    6028:	0e 8c       	sub	r12,	r14	;
    602a:	0f 7d       	subc	r13,	r15	;

0000602c <.Loc.471.1>:
    602c:	82 4e 10 1c 	mov	r14,	&0x1c10	;
    6030:	82 4f 12 1c 	mov	r15,	&0x1c12	;

00006034 <.Loc.472.1>:
    6034:	5d 43       	mov.b	#1,	r13	;r3 As==01
    6036:	4c 43       	clr.b	r12		;
    6038:	b0 12 3c 66 	call	#26172		;#0x663c

0000603c <.Loc.474.1>:
    603c:	1c 42 10 1c 	mov	&0x1c10,r12	;0x1c10
    6040:	1d 42 12 1c 	mov	&0x1c12,r13	;0x1c12

00006044 <.Loc.474.1>:
    6044:	09 4d       	mov	r13,	r9	;
    6046:	0d 93       	cmp	#0,	r13	;r3 As==00
    6048:	44 34       	jge	$+138    	;abs 0x60d2

0000604a <.Loc.474.1>:
    604a:	5e 42 5d 1c 	mov.b	&0x1c5d,r14	;0x1c5d
    604e:	08 43       	clr	r8		;
    6050:	08 8e       	sub	r14,	r8	;
    6052:	0e 48       	mov	r8,	r14	;
    6054:	0f 48       	mov	r8,	r15	;
    6056:	4e 18 0f 11 	rpt #15 { rrax.w	r15		;

0000605a <.Loc.474.1>:
    605a:	0f 9d       	cmp	r13,	r15	;
    605c:	04 38       	jl	$+10     	;abs 0x6066

0000605e <.Loc.474.1>:
    605e:	0d 9f       	cmp	r15,	r13	;
    6060:	20 20       	jnz	$+66     	;abs 0x60a2
    6062:	08 9c       	cmp	r12,	r8	;
    6064:	1e 2c       	jc	$+62     	;abs 0x60a2

00006066 <.L100>:
    6066:	1a 42 52 1c 	mov	&0x1c52,r10	;0x1c52
    606a:	08 4a       	mov	r10,	r8	;
    606c:	09 43       	clr	r9		;

0000606e <.Loc.476.1>:
    606e:	4e 43       	clr.b	r14		;
    6070:	4f 43       	clr.b	r15		;
    6072:	0e 8c       	sub	r12,	r14	;
    6074:	0f 7d       	subc	r13,	r15	;

00006076 <.Loc.476.1>:
    6076:	0f 93       	cmp	#0,	r15	;r3 As==00
    6078:	0c 38       	jl	$+26     	;abs 0x6092
    607a:	0f 93       	cmp	#0,	r15	;r3 As==00
    607c:	02 20       	jnz	$+6      	;abs 0x6082
    607e:	0e 98       	cmp	r8,	r14	;
    6080:	08 28       	jnc	$+18     	;abs 0x6092

00006082 <.L101>:
    6082:	08 9e       	cmp	r14,	r8	;
    6084:	17 20       	jnz	$+48     	;abs 0x60b4
    6086:	0f 93       	cmp	#0,	r15	;r3 As==00
    6088:	15 20       	jnz	$+44     	;abs 0x60b4

0000608a <.Loc.476.1>:
    608a:	d2 92 54 1c 	cmp.b	&0x1c54,&0x1c0e	;0x1c54
    608e:	0e 1c 
    6090:	11 2c       	jc	$+36     	;abs 0x60b4

00006092 <.L92>:
    6092:	4e 43       	clr.b	r14		;
    6094:	0e 8c       	sub	r12,	r14	;
    6096:	82 4e 52 1c 	mov	r14,	&0x1c52	;

0000609a <.L107>:
    609a:	d2 42 0e 1c 	mov.b	&0x1c0e,&0x1c54	;0x1c0e
    609e:	54 1c 

000060a0 <.Loc.494.1>:
    60a0:	09 3c       	jmp	$+20     	;abs 0x60b4

000060a2 <.L90>:
    60a2:	09 4d       	mov	r13,	r9	;
    60a4:	0d 9f       	cmp	r15,	r13	;
    60a6:	04 38       	jl	$+10     	;abs 0x60b0
    60a8:	0f 9d       	cmp	r13,	r15	;
    60aa:	04 20       	jnz	$+10     	;abs 0x60b4
    60ac:	0c 98       	cmp	r8,	r12	;
    60ae:	02 2c       	jc	$+6      	;abs 0x60b4

000060b0 <.L102>:
    60b0:	82 43 0c 1c 	mov	#0,	&0x1c0c	;r3 As==00

000060b4 <.L94>:
    60b4:	5d 42 54 1c 	mov.b	&0x1c54,r13	;0x1c54
    60b8:	5c 43       	mov.b	#1,	r12	;r3 As==01
    60ba:	b0 12 1e 67 	call	#26398		;#0x671e

000060be <.Loc.497.1>:
    60be:	1d 42 52 1c 	mov	&0x1c52,r13	;0x1c52
    60c2:	5c 43       	mov.b	#1,	r12	;r3 As==01
    60c4:	b0 12 2c 67 	call	#26412		;#0x672c

000060c8 <.Loc.500.1>:
    60c8:	1c 42 52 1c 	mov	&0x1c52,r12	;0x1c52
    60cc:	b0 12 8e 65 	call	#25998		;#0x658e

000060d0 <.Loc.507.1>:
    60d0:	1d 3c       	jmp	$+60     	;abs 0x610c

000060d2 <.L88>:
    60d2:	0e 4c       	mov	r12,	r14	;
    60d4:	0e dd       	bis	r13,	r14	;
    60d6:	0e 93       	cmp	#0,	r14	;r3 As==00
    60d8:	ed 27       	jz	$-36     	;abs 0x60b4

000060da <.Loc.485.1>:
    60da:	1a 42 52 1c 	mov	&0x1c52,r10	;0x1c52
    60de:	0e 4a       	mov	r10,	r14	;
    60e0:	0f 43       	clr	r15		;

000060e2 <.Loc.485.1>:
    60e2:	0d 93       	cmp	#0,	r13	;r3 As==00
    60e4:	0e 38       	jl	$+30     	;abs 0x6102
    60e6:	0d 93       	cmp	#0,	r13	;r3 As==00
    60e8:	03 20       	jnz	$+8      	;abs 0x60f0
    60ea:	09 4c       	mov	r12,	r9	;
    60ec:	0c 9e       	cmp	r14,	r12	;
    60ee:	09 28       	jnc	$+20     	;abs 0x6102

000060f0 <.L103>:
    60f0:	09 4c       	mov	r12,	r9	;
    60f2:	0c 9e       	cmp	r14,	r12	;
    60f4:	df 23       	jnz	$-64     	;abs 0x60b4
    60f6:	0d 9f       	cmp	r15,	r13	;
    60f8:	dd 23       	jnz	$-68     	;abs 0x60b4

000060fa <.Loc.485.1>:
    60fa:	d2 92 54 1c 	cmp.b	&0x1c54,&0x1c0e	;0x1c54
    60fe:	0e 1c 
    6100:	d9 2f       	jc	$-76     	;abs 0x60b4

00006102 <.L97>:
    6102:	82 4c 52 1c 	mov	r12,	&0x1c52	;
    6106:	c9 3f       	jmp	$-108    	;abs 0x609a

00006108 <.L87>:
    6108:	b0 12 4c 65 	call	#25932		;#0x654c

0000610c <.L86>:
    610c:	28 17       	popm	#3,	r10	;16-bit words

0000610e <.LCFI29>:
    610e:	30 41       	ret			

00006110 <set_periodic_timer>:
    6110:	2a 15       	pushm	#3,	r10	;16-bit words

00006112 <.LCFI30>:
    6112:	49 4c       	mov.b	r12,	r9	;
    6114:	0a 4d       	mov	r13,	r10	;

00006116 <.Loc.392.1>:
    6116:	b0 12 e4 5f 	call	#24548		;#0x5fe4

0000611a <.LVL127>:
    611a:	82 93 0c 1c 	cmp	#0,	&0x1c0c	;r3 As==00
    611e:	2e 20       	jnz	$+94     	;abs 0x617c

00006120 <.Loc.403.1>:
    6120:	38 40 c6 59 	mov	#22982,	r8	;#0x59c6
    6124:	4c 49       	mov.b	r9,	r12	;
    6126:	88 12       	call	r8		;
    6128:	0d 4a       	mov	r10,	r13	;
    612a:	b0 12 92 59 	call	#22930		;#0x5992

0000612e <.Loc.404.1>:
    612e:	4c 49       	mov.b	r9,	r12	;
    6130:	88 12       	call	r8		;
    6132:	5d 43       	mov.b	#1,	r13	;r3 As==01
    6134:	b0 12 98 59 	call	#22936		;#0x5998

00006138 <.Loc.405.1>:
    6138:	0e 4a       	mov	r10,	r14	;
    613a:	4f 43       	clr.b	r15		;
    613c:	5d 43       	mov.b	#1,	r13	;r3 As==01
    613e:	4c 43       	clr.b	r12		;
    6140:	b0 12 3c 66 	call	#26172		;#0x663c

00006144 <.Loc.406.1>:
    6144:	82 4a 10 1c 	mov	r10,	&0x1c10	;
    6148:	82 43 12 1c 	mov	#0,	&0x1c12	;r3 As==00

0000614c <.Loc.407.1>:
    614c:	4e 49       	mov.b	r9,	r14	;
    614e:	5d 43       	mov.b	#1,	r13	;r3 As==01
    6150:	4c 43       	clr.b	r12		;
    6152:	b0 12 8e 66 	call	#26254		;#0x668e

00006156 <.Loc.408.1>:
    6156:	c2 49 0e 1c 	mov.b	r9,	&0x1c0e	;

0000615a <.Loc.409.1>:
    615a:	5e 43       	mov.b	#1,	r14	;r3 As==01
    615c:	5d 43       	mov.b	#1,	r13	;r3 As==01
    615e:	4c 43       	clr.b	r12		;
    6160:	b0 12 d8 66 	call	#26328		;#0x66d8

00006164 <.Loc.410.1>:
    6164:	92 43 0c 1c 	mov	#1,	&0x1c0c	;r3 As==01

00006168 <.L111>:
    6168:	b0 12 06 60 	call	#24582		;#0x6006

0000616c <.Loc.433.1>:
    616c:	5c 43       	mov.b	#1,	r12	;r3 As==01
    616e:	b0 12 3a 67 	call	#26426		;#0x673a

00006172 <.Loc.434.1>:
    6172:	5c 43       	mov.b	#1,	r12	;r3 As==01
    6174:	b0 12 20 68 	call	#26656		;#0x6820

00006178 <.Loc.435.1>:
    6178:	28 17       	popm	#3,	r10	;16-bit words

0000617a <.LCFI31>:
    617a:	30 41       	ret			

0000617c <.L109>:
    617c:	82 4a 10 1c 	mov	r10,	&0x1c10	;
    6180:	82 43 12 1c 	mov	#0,	&0x1c12	;r3 As==00

00006184 <.Loc.426.1>:
    6184:	0e 4a       	mov	r10,	r14	;
    6186:	4f 43       	clr.b	r15		;
    6188:	5d 43       	mov.b	#1,	r13	;r3 As==01
    618a:	4c 43       	clr.b	r12		;
    618c:	b0 12 3c 66 	call	#26172		;#0x663c

00006190 <.Loc.427.1>:
    6190:	c2 49 0e 1c 	mov.b	r9,	&0x1c0e	;

00006194 <.Loc.428.1>:
    6194:	4e 49       	mov.b	r9,	r14	;
    6196:	5d 43       	mov.b	#1,	r13	;r3 As==01
    6198:	4c 43       	clr.b	r12		;
    619a:	b0 12 8e 66 	call	#26254		;#0x668e
    619e:	e4 3f       	jmp	$-54     	;abs 0x6168

000061a0 <clear_pdc_status>:
    61a0:	5c 92 0e 1c 	cmp.b	&0x1c0e,r12	;0x1c0e
    61a4:	07 20       	jnz	$+16     	;abs 0x61b4

000061a6 <.Loc.516.1>:
    61a6:	82 43 0c 1c 	mov	#0,	&0x1c0c	;r3 As==00

000061aa <.Loc.517.1>:
    61aa:	4e 43       	clr.b	r14		;
    61ac:	5d 43       	mov.b	#1,	r13	;r3 As==01
    61ae:	4c 43       	clr.b	r12		;

000061b0 <.LVL144>:
    61b0:	b0 12 d8 66 	call	#26328		;#0x66d8

000061b4 <.L112>:
    61b4:	30 41       	ret			

000061b6 <stop_periodic_timer>:
    61b6:	0a 15       	pushm	#1,	r10	;16-bit words

000061b8 <.LCFI33>:
    61b8:	4a 4c       	mov.b	r12,	r10	;

000061ba <.Loc.440.1>:
    61ba:	b0 12 e4 5f 	call	#24548		;#0x5fe4

000061be <.LVL147>:
    61be:	4c 4a       	mov.b	r10,	r12	;
    61c0:	b0 12 a0 61 	call	#24992		;#0x61a0

000061c4 <.Loc.445.1>:
    61c4:	b0 12 06 60 	call	#24582		;#0x6006

000061c8 <.Loc.447.1>:
    61c8:	6c 43       	mov.b	#2,	r12	;r3 As==10
    61ca:	b0 12 3a 67 	call	#26426		;#0x673a

000061ce <.Loc.448.1>:
    61ce:	6c 43       	mov.b	#2,	r12	;r3 As==10
    61d0:	b0 12 20 68 	call	#26656		;#0x6820

000061d4 <.Loc.450.1>:
    61d4:	0a 17       	popm	#1,	r10	;16-bit words

000061d6 <.LCFI34>:
    61d6:	30 41       	ret			

000061d8 <main>:
    61d8:	b0 12 8a 64 	call	#25738		;#0x648a

000061dc <.Loc.46.1>:
    61dc:	c2 93 e0 4c 	cmp.b	#0,	&0x4ce0	;r3 As==00
    61e0:	08 20       	jnz	$+18     	;abs 0x61f2

000061e2 <.Loc.48.1>:
    61e2:	b0 12 ac 58 	call	#22700		;#0x58ac

000061e6 <.Loc.50.1>:
    61e6:	b0 12 40 62 	call	#25152		;#0x6240

000061ea <.Loc.57.1>:
    61ea:	b0 12 60 53 	call	#21344		;#0x5360

000061ee <.Loc.59.1>:
    61ee:	d2 43 e0 4c 	mov.b	#1,	&0x4ce0	;r3 As==01

000061f2 <.L2>:
    61f2:	f2 c2 02 02 	bic.b	#8,	&0x0202	;r2 As==11

000061f6 <.Loc.68.1>:
    61f6:	
000061f8 <L0^A>:
    61f8:	04 02       	mova	@r2,	r4	;

000061fa <.Loc.68.1>:
    61fa:	f2 c2 02 02 	bic.b	#8,	&0x0202	;r2 As==11

000061fe <.Loc.68.1>:
    61fe:	f2 f0 ef ff 	and.b	#-17,	&0x0202	;#0xffef
    6202:	02 02 

00006204 <.Loc.69.1>:
    6204:	f2 d0 10 00 	bis.b	#16,	&0x0204	;#0x0010
    6208:	04 02 

0000620a <.Loc.69.1>:
    620a:	f2 f0 ef ff 	and.b	#-17,	&0x0202	;#0xffef
    620e:	02 02 

00006210 <.Loc.69.1>:
    6210:	f2 f0 df ff 	and.b	#-33,	&0x0222	;#0xffdf
    6214:	22 02 

00006216 <.Loc.70.1>:
    6216:	f2 d0 20 00 	bis.b	#32,	&0x0224	;#0x0020
    621a:	24 02 

0000621c <.Loc.70.1>:
    621c:	f2 f0 df ff 	and.b	#-33,	&0x0222	;#0xffdf
    6220:	22 02 

00006222 <.Loc.70.1>:
    6222:	f2 f0 bf ff 	and.b	#-65,	&0x0222	;#0xffbf
    6226:	22 02 

00006228 <.Loc.71.1>:
    6228:	f2 d0 40 00 	bis.b	#64,	&0x0224	;#0x0040
    622c:	24 02 

0000622e <.Loc.71.1>:
    622e:	f2 f0 bf ff 	and.b	#-65,	&0x0222	;#0xffbf
    6232:	22 02 

00006234 <.Loc.71.1>:
    6234:	b0 12 d0 57 	call	#22480		;#0x57d0

00006238 <.Loc.78.1>:
    6238:	b0 12 d8 59 	call	#23000		;#0x59d8

0000623c <.Loc.80.1>:
    623c:	4c 43       	clr.b	r12		;
    623e:	30 41       	ret			

00006240 <__events_boot_init>:
    6240:	1a 15       	pushm	#2,	r10	;16-bit words

00006242 <.LCFI0>:
    6242:	3a 40 62 52 	mov	#21090,	r10	;#0x5262
    6246:	39 40 e2 4c 	mov	#19682,	r9	;#0x4ce2

0000624a <.L2>:
    624a:	0c 4a       	mov	r10,	r12	;
    624c:	b0 12 6c 63 	call	#25452		;#0x636c

00006250 <.Loc.56.1>:
    6250:	89 43 80 00 	mov	#0,	128(r9)	;r3 As==00, 0x0080

00006254 <.Loc.53.1>:
    6254:	3a 50 ec ff 	add	#-20,	r10	;#0xffec
    6258:	39 50 fe ff 	add	#-2,	r9	;#0xfffe

0000625c <.Loc.53.1>:
    625c:	3a 90 62 4d 	cmp	#19810,	r10	;#0x4d62
    6260:	f4 23       	jnz	$-22     	;abs 0x624a

00006262 <.Loc.58.1>:
    6262:	19 17       	popm	#2,	r10	;16-bit words

00006264 <.LCFI1>:
    6264:	30 41       	ret			

00006266 <__events_commit>:
    6266:	5c 42 6e 52 	mov.b	&0x526e,r12	;0x526e
    626a:	5c 93       	cmp.b	#1,	r12	;r3 As==01
    626c:	13 24       	jz	$+40     	;abs 0x6294
    626e:	6c 93       	cmp.b	#2,	r12	;r3 As==10
    6270:	1e 24       	jz	$+62     	;abs 0x62ae
    6272:	0c 93       	cmp	#0,	r12	;r3 As==00
    6274:	29 20       	jnz	$+84     	;abs 0x62c8

00006276 <.Loc.65.1>:
    6276:	1d 42 6c 52 	mov	&0x526c,r13	;0x526c

0000627a <.Loc.65.1>:
    627a:	6c 4d       	mov.b	@r13,	r12	;
    627c:	5c 06       	rlam	#2,	r12	;
    627e:	6d 4d       	mov.b	@r13,	r13	;
    6280:	0c 5d       	add	r13,	r12	;
    6282:	5c 06       	rlam	#2,	r12	;
    6284:	3d 40 62 52 	mov	#21090,	r13	;#0x5262
    6288:	3c 50 62 4d 	add	#19810,	r12	;#0x4d62
    628c:	b0 12 c8 63 	call	#25544		;#0x63c8

00006290 <.Loc.66.1>:
    6290:	d2 43 6e 52 	mov.b	#1,	&0x526e	;r3 As==01

00006294 <.L5>:
    6294:	1d 42 6c 52 	mov	&0x526c,r13	;0x526c

00006298 <.Loc.68.1>:
    6298:	6c 4d       	mov.b	@r13,	r12	;
    629a:	5c 06       	rlam	#2,	r12	;
    629c:	6d 4d       	mov.b	@r13,	r13	;
    629e:	0c 5d       	add	r13,	r12	;
    62a0:	5c 06       	rlam	#2,	r12	;
    62a2:	3c 50 62 4d 	add	#19810,	r12	;#0x4d62
    62a6:	b0 12 fe 63 	call	#25598		;#0x63fe

000062aa <.Loc.69.1>:
    62aa:	e2 43 6e 52 	mov.b	#2,	&0x526e	;r3 As==10

000062ae <.L6>:
    62ae:	1c 42 6c 52 	mov	&0x526c,r12	;0x526c
    62b2:	1c 4c 02 00 	mov	2(r12),	r12	;

000062b6 <.Loc.72.1>:
    62b6:	3c 92       	cmp	#8,	r12	;r2 As==11
    62b8:	04 20       	jnz	$+10     	;abs 0x62c2

000062ba <.Loc.73.1>:
    62ba:	1c 42 6c 52 	mov	&0x526c,r12	;0x526c
    62be:	b0 12 aa 59 	call	#22954		;#0x59aa

000062c2 <.L8>:
    62c2:	f2 40 03 00 	mov.b	#3,	&0x526e	;
    62c6:	6e 52 

000062c8 <.L4>:
    62c8:	30 41       	ret			

000062ca <__event_buffer_full_ISR>:
    62ca:	1d 42 6c 52 	mov	&0x526c,r13	;0x526c

000062ce <.Loc.81.1>:
    62ce:	6c 4d       	mov.b	@r13,	r12	;

000062d0 <.LVL7>:
    62d0:	5c 06       	rlam	#2,	r12	;
    62d2:	6d 4d       	mov.b	@r13,	r13	;
    62d4:	0c 5d       	add	r13,	r12	;
    62d6:	5c 06       	rlam	#2,	r12	;
    62d8:	3c 50 62 4d 	add	#19810,	r12	;#0x4d62
    62dc:	b0 12 9c 63 	call	#25500		;#0x639c

000062e0 <.Loc.82.1>:
    62e0:	30 41       	ret			

000062e2 <__event_signal_ISR>:
    62e2:	82 4c 6c 52 	mov	r12,	&0x526c	;

000062e6 <.Loc.90.1>:
    62e6:	7e 40 0a 00 	mov.b	#10,	r14	;#0x000a
    62ea:	3c 40 62 52 	mov	#21090,	r12	;#0x5262

000062ee <.LVL10>:
    62ee:	b0 12 a8 69 	call	#27048		;#0x69a8

000062f2 <.LVL11>:
    62f2:	c2 43 6e 52 	mov.b	#0,	&0x526e	;r3 As==00

000062f6 <.Loc.92.1>:
    62f6:	b0 12 66 62 	call	#25190		;#0x6266

000062fa <.Loc.93.1>:
    62fa:	30 41       	ret			

000062fc <__has_events>:
    62fc:	6d 4c       	mov.b	@r12,	r13	;
    62fe:	5d 06       	rlam	#2,	r13	;
    6300:	6c 4c       	mov.b	@r12,	r12	;

00006302 <.LVL14>:
    6302:	0c 5d       	add	r13,	r12	;
    6304:	5c 06       	rlam	#2,	r12	;
    6306:	3c 50 62 4d 	add	#19810,	r12	;#0x4d62
    630a:	b0 12 86 63 	call	#25478		;#0x6386
    630e:	3c f0 ff 00 	and	#255,	r12	;#0x00ff

00006312 <.Loc.97.1>:
    6312:	3c 53       	add	#-1,	r12	;r3 As==11

00006314 <.Loc.101.1>:
    6314:	4e 19 0c 10 	rpt #15 { rrux.w	r12		;
    6318:	30 41       	ret			

0000631a <__lock_event>:
    631a:	0a 15       	pushm	#1,	r10	;16-bit words

0000631c <.LCFI2>:
    631c:	1c 42 6c 52 	mov	&0x526c,r12	;0x526c

00006320 <.LVL17>:
    6320:	6a 4c       	mov.b	@r12,	r10	;

00006322 <.Loc.107.1>:
    6322:	0c 4a       	mov	r10,	r12	;
    6324:	5c 06       	rlam	#2,	r12	;
    6326:	0c 5a       	add	r10,	r12	;
    6328:	5c 06       	rlam	#2,	r12	;
    632a:	3c 50 62 4d 	add	#19810,	r12	;#0x4d62
    632e:	b0 12 06 64 	call	#25606		;#0x6406

00006332 <.Loc.107.1>:
    6332:	5a 02       	rlam	#1,	r10	;
    6334:	8a 4c e2 4c 	mov	r12,	19682(r10); 0x4ce2

00006338 <.Loc.108.1>:
    6338:	1c 42 6c 52 	mov	&0x526c,r12	;0x526c
    633c:	6c 4c       	mov.b	@r12,	r12	;
    633e:	5c 02       	rlam	#1,	r12	;

00006340 <.Loc.109.1>:
    6340:	1c 4c e2 4c 	mov	19682(r12),r12	;0x04ce2
    6344:	0a 17       	popm	#1,	r10	;16-bit words

00006346 <.LCFI3>:
    6346:	30 41       	ret			

00006348 <__release_event>:
    6348:	1d 42 6c 52 	mov	&0x526c,r13	;0x526c

0000634c <.Loc.113.1>:
    634c:	6c 4d       	mov.b	@r13,	r12	;

0000634e <.LVL20>:
    634e:	5c 06       	rlam	#2,	r12	;
    6350:	6d 4d       	mov.b	@r13,	r13	;
    6352:	0c 5d       	add	r13,	r12	;
    6354:	5c 06       	rlam	#2,	r12	;
    6356:	3c 50 62 4d 	add	#19810,	r12	;#0x4d62
    635a:	b0 12 38 64 	call	#25656		;#0x6438

0000635e <.Loc.114.1>:
    635e:	1c 42 6c 52 	mov	&0x526c,r12	;0x526c
    6362:	6c 4c       	mov.b	@r12,	r12	;
    6364:	5c 02       	rlam	#1,	r12	;
    6366:	8c 43 e2 4c 	mov	#0,	19682(r12);r3 As==00, 0x4ce2

0000636a <.Loc.115.1>:
    636a:	30 41       	ret			

0000636c <__perqueue_init>:
    636c:	dc ec 10 00 	xor.b	16(r12),16(r12)	;0x00010, 0x0010
    6370:	10 00 

00006372 <.Loc.37.1>:
    6372:	dc ec 11 00 	xor.b	17(r12),17(r12)	;0x00011, 0x0011
    6376:	11 00 

00006378 <.Loc.38.1>:
    6378:	dc ec 12 00 	xor.b	18(r12),18(r12)	;0x00012, 0x0012
    637c:	12 00 

0000637e <.Loc.39.1>:
    637e:	dc ec 13 00 	xor.b	19(r12),19(r12)	;0x00013, 0x0013
    6382:	13 00 

00006384 <.Loc.40.1>:
    6384:	30 41       	ret			

00006386 <__perqueue_is_empty>:
    6386:	5d 4c 11 00 	mov.b	17(r12),r13	;0x00011
    638a:	5d ec 10 00 	xor.b	16(r12),r13	;0x00010
    638e:	4c 4d       	mov.b	r13,	r12	;

00006390 <.LVL2>:
    6390:	3c f0 ff 00 	and	#255,	r12	;#0x00ff
    6394:	3c 53       	add	#-1,	r12	;r3 As==11

00006396 <.Loc.49.1>:
    6396:	4e 19 0c 10 	rpt #15 { rrux.w	r12		;
    639a:	30 41       	ret			

0000639c <__perqueue_is_full>:
    639c:	5d 4c 11 00 	mov.b	17(r12),r13	;0x00011
    63a0:	5d 53       	inc.b	r13		;
    63a2:	cc 4d 13 00 	mov.b	r13,	19(r12)	; 0x0013

000063a6 <.Loc.54.1>:
    63a6:	5d 4c 13 00 	mov.b	19(r12),r13	;0x00013
    63aa:	7d 92       	cmp.b	#8,	r13	;r2 As==11
    63ac:	02 20       	jnz	$+6      	;abs 0x63b2

000063ae <.Loc.55.1>:
    63ae:	cc 43 13 00 	mov.b	#0,	19(r12)	;r3 As==00, 0x0013

000063b2 <.L4>:
    63b2:	5d 4c 10 00 	mov.b	16(r12),r13	;0x00010
    63b6:	5d ec 13 00 	xor.b	19(r12),r13	;0x00013
    63ba:	4c 4d       	mov.b	r13,	r12	;

000063bc <.LVL4>:
    63bc:	3c f0 ff 00 	and	#255,	r12	;#0x00ff
    63c0:	3c 53       	add	#-1,	r12	;r3 As==11

000063c2 <.Loc.64.1>:
    63c2:	4e 19 0c 10 	rpt #15 { rrux.w	r12		;
    63c6:	30 41       	ret			

000063c8 <__perqueue_push>:
    63c8:	0e 4c       	mov	r12,	r14	;

000063ca <.Loc.68.1>:
    63ca:	5c 4c 11 00 	mov.b	17(r12),r12	;0x00011

000063ce <.LVL6>:
    63ce:	5c 53       	inc.b	r12		;
    63d0:	ce 4c 13 00 	mov.b	r12,	19(r14)	; 0x0013

000063d4 <.Loc.69.1>:
    63d4:	5c 4e 13 00 	mov.b	19(r14),r12	;0x00013
    63d8:	7c 92       	cmp.b	#8,	r12	;r2 As==11
    63da:	02 20       	jnz	$+6      	;abs 0x63e0

000063dc <.Loc.70.1>:
    63dc:	ce 43 13 00 	mov.b	#0,	19(r14)	;r3 As==00, 0x0013

000063e0 <.L6>:
    63e0:	5b 4e 13 00 	mov.b	19(r14),r11	;0x00013

000063e4 <.Loc.74.1>:
    63e4:	5f 4e 10 00 	mov.b	16(r14),r15	;0x00010

000063e8 <.Loc.75.1>:
    63e8:	4c 43       	clr.b	r12		;

000063ea <.Loc.74.1>:
    63ea:	0b 9f       	cmp	r15,	r11	;
    63ec:	07 24       	jz	$+16     	;abs 0x63fc

000063ee <.Loc.79.1>:
    63ee:	5c 4e 11 00 	mov.b	17(r14),r12	;0x00011

000063f2 <.Loc.79.1>:
    63f2:	5c 02       	rlam	#1,	r12	;
    63f4:	0e 5c       	add	r12,	r14	;

000063f6 <.LVL7>:
    63f6:	8e 4d 00 00 	mov	r13,	0(r14)	;

000063fa <.Loc.81.1>:
    63fa:	5c 43       	mov.b	#1,	r12	;r3 As==01

000063fc <.L7>:
    63fc:	30 41       	ret			

000063fe <__perqueue_push_commit>:
    63fe:	dc 4c 13 00 	mov.b	19(r12),17(r12)	;0x00013, 0x0011
    6402:	11 00 

00006404 <.Loc.89.1>:
    6404:	30 41       	ret			

00006406 <__perqueue_pop>:
    6406:	0d 4c       	mov	r12,	r13	;

00006408 <.Loc.93.1>:
    6408:	5f 4c 10 00 	mov.b	16(r12),r15	;0x00010

0000640c <.Loc.93.1>:
    640c:	5e 4c 11 00 	mov.b	17(r12),r14	;0x00011

00006410 <.Loc.94.1>:
    6410:	4c 43       	clr.b	r12		;

00006412 <.LVL10>:
    6412:	0f 9e       	cmp	r14,	r15	;
    6414:	10 24       	jz	$+34     	;abs 0x6436

00006416 <.Loc.98.1>:
    6416:	5c 4d 10 00 	mov.b	16(r13),r12	;0x00010
    641a:	5c 53       	inc.b	r12		;
    641c:	cd 4c 12 00 	mov.b	r12,	18(r13)	; 0x0012

00006420 <.Loc.99.1>:
    6420:	5c 4d 12 00 	mov.b	18(r13),r12	;0x00012
    6424:	7c 92       	cmp.b	#8,	r12	;r2 As==11
    6426:	02 20       	jnz	$+6      	;abs 0x642c

00006428 <.Loc.100.1>:
    6428:	cd 43 12 00 	mov.b	#0,	18(r13)	;r3 As==00, 0x0012

0000642c <.L12>:
    642c:	5c 4d 10 00 	mov.b	16(r13),r12	;0x00010

00006430 <.Loc.102.1>:
    6430:	5c 02       	rlam	#1,	r12	;
    6432:	0d 5c       	add	r12,	r13	;

00006434 <.LVL11>:
    6434:	2c 4d       	mov	@r13,	r12	;

00006436 <.L10>:
    6436:	30 41       	ret			

00006438 <__perqueue_pop_commit>:
    6438:	dc 4c 12 00 	mov.b	18(r12),16(r12)	;0x00012, 0x0010
    643c:	10 00 

0000643e <.Loc.109.1>:
    643e:	30 41       	ret			

00006440 <__dma_word_copy>:
    6440:	0a 15       	pushm	#1,	r10	;16-bit words

00006442 <.LCFI0>:
    6442:	21 82       	sub	#4,	r1	;r2 As==10

00006444 <.LBB2>:
    6444:	0a 4c       	mov	r12,	r10	;
    6446:	0b 43       	clr	r11		;
    6448:	81 4a 00 00 	mov	r10,	0(r1)	;
    644c:	81 4b 02 00 	mov	r11,	2(r1)	;

00006450 <.Loc.38.1>:
    6450:	3c 40 12 05 	mov	#1298,	r12	;#0x0512

00006454 <.LVL1>:
    6454:	00 18 ec 41 	movx.a	@r1,	0(r12)	;
    6458:	00 00 

0000645a <.LBB3>:
    645a:	0a 4d       	mov	r13,	r10	;
    645c:	0b 43       	clr	r11		;

0000645e <.LVL2>:
    645e:	81 4a 00 00 	mov	r10,	0(r1)	;
    6462:	81 4b 02 00 	mov	r11,	2(r1)	;

00006466 <.Loc.40.1>:
    6466:	3c 40 16 05 	mov	#1302,	r12	;#0x0516
    646a:	00 18 ec 41 	movx.a	@r1,	0(r12)	;
    646e:	00 00 

00006470 <.LBE3>:
    6470:	82 4e 1a 05 	mov	r14,	&0x051a	;

00006474 <.Loc.43.1>:
    6474:	b2 40 00 5f 	mov	#24320,	&0x0510	;#0x5f00
    6478:	10 05 

0000647a <.Loc.44.1>:
    647a:	b2 d0 10 00 	bis	#16,	&0x0510	;#0x0010
    647e:	10 05 

00006480 <.Loc.46.1>:
    6480:	92 d3 10 05 	bis	#1,	&0x0510	;r3 As==01

00006484 <.Loc.47.1>:
    6484:	21 52       	add	#4,	r1	;r2 As==10

00006486 <.LCFI2>:
    6486:	0a 17       	popm	#1,	r10	;16-bit words

00006488 <.LCFI3>:
    6488:	30 41       	ret			

0000648a <__mcu_init>:
    648a:	b2 40 80 5a 	mov	#23168,	&0x015c	;#0x5a80
    648e:	5c 01 

00006490 <.Loc.40.1>:
    6490:	b2 40 10 a5 	mov	#-23280,&0x0140	;#0xa510
    6494:	40 01 

00006496 <L0^A>:
    6496:	00 3c       	jmp	$+2      	;abs 0x6498
    6498:	03 43       	nop			

0000649a <.Loc.44.1>:
    649a:	f2 d0 a5 ff 	bis.b	#-91,	&0x0141	;#0xffa5
    649e:	41 01 

000064a0 <L0^A>:
    64a0:	00 3c       	jmp	$+2      	;abs 0x64a2
    64a2:	03 43       	nop			

000064a4 <.Loc.48.1>:
    64a4:	f2 f0 bf ff 	and.b	#-65,	&0x0223	;#0xffbf
    64a8:	23 02 

000064aa <.Loc.48.1>:
    64aa:	f2 d0 40 00 	bis.b	#64,	&0x0225	;#0x0040
    64ae:	25 02 

000064b0 <.Loc.48.1>:
    64b0:	f2 f0 bf ff 	and.b	#-65,	&0x0223	;#0xffbf
    64b4:	23 02 

000064b6 <.Loc.48.1>:
    64b6:	d2 c3 02 02 	bic.b	#1,	&0x0202	;r3 As==01

000064ba <.Loc.49.1>:
    64ba:	d2 d3 04 02 	bis.b	#1,	&0x0204	;r3 As==01

000064be <.Loc.49.1>:
    64be:	d2 c3 02 02 	bic.b	#1,	&0x0202	;r3 As==01

000064c2 <.Loc.49.1>:
    64c2:	92 c3 30 01 	bic	#1,	&0x0130	;r3 As==01

000064c6 <.Loc.53.1>:
    64c6:	30 41       	ret			

000064c8 <__priority_init>:
    64c8:	cc 43 08 00 	mov.b	#0,	8(r12)	;r3 As==00

000064cc <.Loc.83.1>:
    64cc:	cc 43 07 00 	mov.b	#0,	7(r12)	;r3 As==00

000064d0 <.Loc.83.1>:
    64d0:	cc 43 06 00 	mov.b	#0,	6(r12)	;r3 As==00

000064d4 <.Loc.83.1>:
    64d4:	cc 43 05 00 	mov.b	#0,	5(r12)	;r3 As==00

000064d8 <.Loc.83.1>:
    64d8:	cc 43 04 00 	mov.b	#0,	4(r12)	;r3 As==00

000064dc <.Loc.83.1>:
    64dc:	cc 43 03 00 	mov.b	#0,	3(r12)	;r3 As==00

000064e0 <.Loc.83.1>:
    64e0:	cc 43 02 00 	mov.b	#0,	2(r12)	;r3 As==00

000064e4 <.Loc.83.1>:
    64e4:	cc 43 01 00 	mov.b	#0,	1(r12)	;r3 As==00

000064e8 <.Loc.83.1>:
    64e8:	cc 43 08 00 	mov.b	#0,	8(r12)	;r3 As==00

000064ec <.Loc.88.1>:
    64ec:	30 41       	ret			

000064ee <__priority_insert>:
    64ee:	3c f0 ff 00 	and	#255,	r12	;#0x00ff

000064f2 <.Loc.93.1>:
    64f2:	0e 4c       	mov	r12,	r14	;
    64f4:	5e 09       	rram	#3,	r14	;

000064f6 <.Loc.99.1>:
    64f6:	7e f0 07 00 	and.b	#7,	r14	;

000064fa <.Loc.99.1>:
    64fa:	dd de 00 45 	bis.b	17664(r14),8(r13)	;0x04500
    64fe:	08 00 

00006500 <.Loc.100.1>:
    6500:	0d 5e       	add	r14,	r13	;

00006502 <.LVL12>:
    6502:	7c f0 07 00 	and.b	#7,	r12	;

00006506 <.LVL13>:
    6506:	dd dc 00 45 	bis.b	17664(r12),0(r13)	;0x04500
    650a:	00 00 

0000650c <.Loc.101.1>:
    650c:	30 41       	ret			

0000650e <__priority_remove>:
    650e:	3c f0 ff 00 	and	#255,	r12	;#0x00ff

00006512 <.Loc.106.1>:
    6512:	0e 4c       	mov	r12,	r14	;
    6514:	5e 09       	rram	#3,	r14	;

00006516 <.Loc.112.1>:
    6516:	7e f0 07 00 	and.b	#7,	r14	;
    651a:	0f 4d       	mov	r13,	r15	;
    651c:	0f 5e       	add	r14,	r15	;

0000651e <.Loc.112.1>:
    651e:	7c f0 07 00 	and.b	#7,	r12	;

00006522 <.LVL16>:
    6522:	df cc 00 45 	bic.b	17664(r12),0(r15)	;0x04500
    6526:	00 00 

00006528 <.Loc.114.1>:
    6528:	6c 4f       	mov.b	@r15,	r12	;

0000652a <.Loc.114.1>:
    652a:	0c 93       	cmp	#0,	r12	;r3 As==00
    652c:	03 20       	jnz	$+8      	;abs 0x6534

0000652e <.Loc.115.1>:
    652e:	dd ce 00 45 	bic.b	17664(r14),8(r13)	;0x04500
    6532:	08 00 

00006534 <.L3>:
    6534:	30 41       	ret			

00006536 <__priority_highest>:
    6536:	5d 4c 08 00 	mov.b	8(r12),	r13	;

0000653a <.LVL18>:
    653a:	5d 4d 00 44 	mov.b	17408(r13),r13	;0x04400

0000653e <.LVL19>:
    653e:	0c 5d       	add	r13,	r12	;

00006540 <.LVL20>:
    6540:	6e 4c       	mov.b	@r12,	r14	;

00006542 <.Loc.127.1>:
    6542:	0c 4d       	mov	r13,	r12	;
    6544:	5c 0a       	rlam	#3,	r12	;

00006546 <.Loc.128.1>:
    6546:	5c de 00 44 	bis.b	17408(r14),r12	;0x04400
    654a:	30 41       	ret			

0000654c <stop_timer>:
    654c:	82 43 02 04 	mov	#0,	&0x0402	;r3 As==00

00006550 <.Loc.157.1>:
    6550:	82 43 00 04 	mov	#0,	&0x0400	;r3 As==00

00006554 <.Loc.158.1>:
    6554:	30 41       	ret			

00006556 <timerA2_init>:
    6556:	b0 12 4c 65 	call	#25932		;#0x654c
    655a:	30 41       	ret			

0000655c <set_timer_wkup>:
    655c:	82 43 40 03 	mov	#0,	&0x0340	;r3 As==00

00006560 <.Loc.179.1>:
    6560:	82 4c 52 03 	mov	r12,	&0x0352	;

00006564 <.Loc.180.1>:
    6564:	b2 40 10 00 	mov	#16,	&0x0342	;#0x0010
    6568:	42 03 

0000656a <.Loc.181.1>:
    656a:	b2 40 14 02 	mov	#532,	&0x0340	;#0x0214
    656e:	40 03 

00006570 <.Loc.182.1>:
    6570:	30 41       	ret			

00006572 <set_timer_xpr>:
    6572:	82 43 00 04 	mov	#0,	&0x0400	;r3 As==00

00006576 <.Loc.186.1>:
    6576:	82 4c 12 04 	mov	r12,	&0x0412	;

0000657a <.Loc.187.1>:
    657a:	b2 40 10 00 	mov	#16,	&0x0402	;#0x0010
    657e:	02 04 

00006580 <.Loc.188.1>:
    6580:	b2 40 14 01 	mov	#276,	&0x0400	;#0x0114
    6584:	00 04 

00006586 <.Loc.190.1>:
    6586:	30 41       	ret			

00006588 <stop_timer_xpr>:
    6588:	b0 12 4c 65 	call	#25932		;#0x654c
    658c:	30 41       	ret			

0000658e <set_timer_pdc>:
    658e:	82 43 80 03 	mov	#0,	&0x0380	;r3 As==00

00006592 <.Loc.202.1>:
    6592:	82 4c 92 03 	mov	r12,	&0x0392	;

00006596 <.Loc.203.1>:
    6596:	b2 40 10 00 	mov	#16,	&0x0382	;#0x0010
    659a:	82 03 

0000659c <.Loc.204.1>:
    659c:	b2 40 14 02 	mov	#532,	&0x0380	;#0x0214
    65a0:	80 03 

000065a2 <.Loc.205.1>:
    65a2:	30 41       	ret			

000065a4 <__setup_rtc>:
    65a4:	30 41       	ret			

000065a6 <__setup_clock>:
    65a6:	f2 40 a5 ff 	mov.b	#-91,	&0x0161	;#0xffa5
    65aa:	61 01 

000065ac <.Loc.253.1>:
    65ac:	b2 40 00 01 	mov	#256,	&0x0164	;#0x0100
    65b0:	64 01 

000065b2 <.Loc.254.1>:
    65b2:	82 43 66 01 	mov	#0,	&0x0166	;r3 As==00

000065b6 <.Loc.255.1>:
    65b6:	c2 43 61 01 	mov.b	#0,	&0x0161	;r3 As==00

000065ba <.Loc.257.1>:
    65ba:	30 41       	ret			

000065bc <__get_rtc_time>:
    65bc:	4c 43       	clr.b	r12		;
    65be:	4d 43       	clr.b	r13		;
    65c0:	30 41       	ret			

000065c2 <__get_time_init>:
    65c2:	82 43 70 52 	mov	#0,	&0x5270	;r3 As==00
    65c6:	82 43 72 52 	mov	#0,	&0x5272	;r3 As==00

000065ca <.Loc.337.1>:
    65ca:	82 43 40 04 	mov	#0,	&0x0440	;r3 As==00

000065ce <.Loc.339.1>:
    65ce:	b2 40 26 01 	mov	#294,	&0x0440	;#0x0126
    65d2:	40 04 

000065d4 <.Loc.341.1>:
    65d4:	03 43       	nop			
    65d6:	32 d2       	eint			
    65d8:	03 43       	nop			

000065da <.Loc.342.1>:
    65da:	30 41       	ret			

000065dc <__get_time_stop>:
    65dc:	82 43 40 04 	mov	#0,	&0x0440	;r3 As==00

000065e0 <.Loc.350.1>:
    65e0:	82 43 42 04 	mov	#0,	&0x0442	;r3 As==00

000065e4 <.Loc.351.1>:
    65e4:	30 41       	ret			

000065e6 <__get_time>:
    65e6:	b2 e0 20 00 	xor	#32,	&0x0440	;#0x0020
    65ea:	40 04 

000065ec <.Loc.363.1>:
    65ec:	1c 42 50 04 	mov	&0x0450,r12	;0x0450

000065f0 <.Loc.365.1>:
    65f0:	b2 e0 20 00 	xor	#32,	&0x0440	;#0x0020
    65f4:	40 04 

000065f6 <.Loc.369.1>:
    65f6:	7d 40 0a 00 	mov.b	#10,	r13	;#0x000a
    65fa:	b0 12 70 69 	call	#26992		;#0x6970

000065fe <.Loc.370.1>:
    65fe:	1c 52 70 52 	add	&0x5270,r12	;0x5270
    6602:	1d 62 72 52 	addc	&0x5272,r13	;0x5272
    6606:	30 41       	ret			

00006608 <isr_TIMER3_A1_VECTOR>:
    6608:	b2 50 aa 00 	add	#170,	&0x5270	;#0x00aa
    660c:	70 52 
    660e:	b2 60 0a 00 	addc	#10,	&0x5272	;#0x000a
    6612:	72 52 

00006614 <.Loc.380.1>:
    6614:	92 c3 40 04 	bic	#1,	&0x0440	;r3 As==01

00006618 <.Loc.381.1>:
    6618:	00 13       	reti			

0000661a <_pers_timer_init>:
    661a:	3c 40 74 52 	mov	#21108,	r12	;#0x5274
    661e:	8c 43 00 00 	mov	#0,	0(r12)	;r3 As==00

00006622 <.Loc.34.1>:
    6622:	8c 43 0a 00 	mov	#0,	10(r12)	;r3 As==00, 0x000a

00006626 <.Loc.34.1>:
    6626:	8c 43 14 00 	mov	#0,	20(r12)	;r3 As==00, 0x0014

0000662a <.Loc.34.1>:
    662a:	8c 43 1e 00 	mov	#0,	30(r12)	;r3 As==00, 0x001e

0000662e <.Loc.38.1>:
    662e:	8c 43 28 00 	mov	#0,	40(r12)	;r3 As==00, 0x0028

00006632 <.Loc.38.1>:
    6632:	8c 43 32 00 	mov	#0,	50(r12)	;r3 As==00, 0x0032

00006636 <.Loc.38.1>:
    6636:	8c 43 3c 00 	mov	#0,	60(r12)	;r3 As==00, 0x003c

0000663a <.Loc.42.1>:
    663a:	30 41       	ret			

0000663c <_pers_timer_update_data>:
    663c:	3c f0 ff 00 	and	#255,	r12	;#0x00ff

00006640 <.Loc.50.1>:
    6640:	1d 93       	cmp	#1,	r13	;r3 As==01
    6642:	1a 24       	jz	$+54     	;abs 0x6678
    6644:	2d 93       	cmp	#2,	r13	;r3 As==10
    6646:	0d 24       	jz	$+28     	;abs 0x6662
    6648:	0d 93       	cmp	#0,	r13	;r3 As==00
    664a:	0a 20       	jnz	$+22     	;abs 0x6660

0000664c <.Loc.53.1>:
    664c:	0d 4c       	mov	r12,	r13	;

0000664e <.LVL9>:
    664e:	5d 06       	rlam	#2,	r13	;
    6650:	0c 5d       	add	r13,	r12	;

00006652 <.LVL10>:
    6652:	5c 02       	rlam	#1,	r12	;
    6654:	8c 4e dc 52 	mov	r14,	21212(r12); 0x52dc
    6658:	8c 4f de 52 	mov	r15,	21214(r12); 0x52de

0000665c <.Loc.54.1>:
    665c:	9c 43 e0 52 	mov	#1,	21216(r12);r3 As==01, 0x52e0

00006660 <.L2>:
    6660:	30 41       	ret			

00006662 <.L4>:
    6662:	0d 4c       	mov	r12,	r13	;

00006664 <.LVL12>:
    6664:	5d 06       	rlam	#2,	r13	;
    6666:	0c 5d       	add	r13,	r12	;
    6668:	5c 02       	rlam	#1,	r12	;
    666a:	8c 4e fa 52 	mov	r14,	21242(r12); 0x52fa
    666e:	8c 4f fc 52 	mov	r15,	21244(r12); 0x52fc

00006672 <.Loc.58.1>:
    6672:	9c 43 fe 52 	mov	#1,	21246(r12);r3 As==01, 0x52fe
    6676:	f4 3f       	jmp	$-22     	;abs 0x6660

00006678 <.L3>:
    6678:	0d 4c       	mov	r12,	r13	;

0000667a <.LVL14>:
    667a:	5d 06       	rlam	#2,	r13	;
    667c:	0c 5d       	add	r13,	r12	;
    667e:	5c 02       	rlam	#1,	r12	;
    6680:	8c 4e 18 53 	mov	r14,	21272(r12); 0x5318
    6684:	8c 4f 1a 53 	mov	r15,	21274(r12); 0x531a

00006688 <.Loc.62.1>:
    6688:	9c 43 1c 53 	mov	#1,	21276(r12);r3 As==01, 0x531c

0000668c <.Loc.63.1>:
    668c:	e9 3f       	jmp	$-44     	;abs 0x6660

0000668e <_pers_timer_update_thread_id>:
    668e:	3c f0 ff 00 	and	#255,	r12	;#0x00ff
    6692:	3e f0 ff 00 	and	#255,	r14	;#0x00ff

00006696 <.Loc.73.1>:
    6696:	1d 93       	cmp	#1,	r13	;r3 As==01
    6698:	16 24       	jz	$+46     	;abs 0x66c6
    669a:	2d 93       	cmp	#2,	r13	;r3 As==10
    669c:	0b 24       	jz	$+24     	;abs 0x66b4
    669e:	0d 93       	cmp	#0,	r13	;r3 As==00
    66a0:	08 20       	jnz	$+18     	;abs 0x66b2

000066a2 <.Loc.76.1>:
    66a2:	0d 4c       	mov	r12,	r13	;

000066a4 <.LVL16>:
    66a4:	5d 06       	rlam	#2,	r13	;
    66a6:	0c 5d       	add	r13,	r12	;

000066a8 <.LVL17>:
    66a8:	5c 02       	rlam	#1,	r12	;
    66aa:	cc 4e da 52 	mov.b	r14,	21210(r12); 0x52da

000066ae <.Loc.77.1>:
    66ae:	9c 43 e0 52 	mov	#1,	21216(r12);r3 As==01, 0x52e0

000066b2 <.L7>:
    66b2:	30 41       	ret			

000066b4 <.L9>:
    66b4:	0d 4c       	mov	r12,	r13	;

000066b6 <.LVL19>:
    66b6:	5d 06       	rlam	#2,	r13	;
    66b8:	0c 5d       	add	r13,	r12	;
    66ba:	5c 02       	rlam	#1,	r12	;
    66bc:	cc 4e f8 52 	mov.b	r14,	21240(r12); 0x52f8

000066c0 <.Loc.81.1>:
    66c0:	9c 43 fe 52 	mov	#1,	21246(r12);r3 As==01, 0x52fe
    66c4:	f6 3f       	jmp	$-18     	;abs 0x66b2

000066c6 <.L8>:
    66c6:	0d 4c       	mov	r12,	r13	;

000066c8 <.LVL21>:
    66c8:	5d 06       	rlam	#2,	r13	;
    66ca:	0c 5d       	add	r13,	r12	;
    66cc:	5c 02       	rlam	#1,	r12	;
    66ce:	cc 4e 16 53 	mov.b	r14,	21270(r12); 0x5316

000066d2 <.Loc.85.1>:
    66d2:	9c 43 1c 53 	mov	#1,	21276(r12);r3 As==01, 0x531c

000066d6 <.Loc.86.1>:
    66d6:	ed 3f       	jmp	$-36     	;abs 0x66b2

000066d8 <_pers_timer_update_status>:
    66d8:	3c f0 ff 00 	and	#255,	r12	;#0x00ff

000066dc <.Loc.95.1>:
    66dc:	1d 93       	cmp	#1,	r13	;r3 As==01
    66de:	16 24       	jz	$+46     	;abs 0x670c
    66e0:	2d 93       	cmp	#2,	r13	;r3 As==10
    66e2:	0b 24       	jz	$+24     	;abs 0x66fa
    66e4:	0d 93       	cmp	#0,	r13	;r3 As==00
    66e6:	08 20       	jnz	$+18     	;abs 0x66f8

000066e8 <.Loc.98.1>:
    66e8:	0d 4c       	mov	r12,	r13	;

000066ea <.LVL23>:
    66ea:	5d 06       	rlam	#2,	r13	;
    66ec:	0c 5d       	add	r13,	r12	;

000066ee <.LVL24>:
    66ee:	5c 02       	rlam	#1,	r12	;
    66f0:	8c 4e d8 52 	mov	r14,	21208(r12); 0x52d8

000066f4 <.Loc.99.1>:
    66f4:	9c 43 e0 52 	mov	#1,	21216(r12);r3 As==01, 0x52e0

000066f8 <.L12>:
    66f8:	30 41       	ret			

000066fa <.L14>:
    66fa:	0d 4c       	mov	r12,	r13	;

000066fc <.LVL26>:
    66fc:	5d 06       	rlam	#2,	r13	;
    66fe:	0c 5d       	add	r13,	r12	;
    6700:	5c 02       	rlam	#1,	r12	;
    6702:	8c 4e f6 52 	mov	r14,	21238(r12); 0x52f6

00006706 <.Loc.103.1>:
    6706:	9c 43 fe 52 	mov	#1,	21246(r12);r3 As==01, 0x52fe
    670a:	f6 3f       	jmp	$-18     	;abs 0x66f8

0000670c <.L13>:
    670c:	0d 4c       	mov	r12,	r13	;

0000670e <.LVL28>:
    670e:	5d 06       	rlam	#2,	r13	;
    6710:	0c 5d       	add	r13,	r12	;
    6712:	5c 02       	rlam	#1,	r12	;
    6714:	8c 4e 14 53 	mov	r14,	21268(r12); 0x5314

00006718 <.Loc.107.1>:
    6718:	9c 43 1c 53 	mov	#1,	21276(r12);r3 As==01, 0x531c

0000671c <.Loc.108.1>:
    671c:	ed 3f       	jmp	$-36     	;abs 0x66f8

0000671e <_pers_timer_update_nxt_thread>:
    671e:	0e 4c       	mov	r12,	r14	;
    6720:	5e 0a       	rlam	#3,	r14	;
    6722:	ce 4d 20 53 	mov.b	r13,	21280(r14); 0x5320

00006726 <.Loc.118.1>:
    6726:	9e 43 24 53 	mov	#1,	21284(r14);r3 As==01, 0x5324

0000672a <.Loc.119.1>:
    672a:	30 41       	ret			

0000672c <_pers_timer_update_nxt_time>:
    672c:	0e 4c       	mov	r12,	r14	;
    672e:	5e 0a       	rlam	#3,	r14	;
    6730:	8e 4d 22 53 	mov	r13,	21282(r14); 0x5322

00006734 <.Loc.124.1>:
    6734:	9e 43 24 53 	mov	#1,	21284(r14);r3 As==01, 0x5324

00006738 <.Loc.125.1>:
    6738:	30 41       	ret			

0000673a <_pers_timer_update_lock>:
    673a:	1c 93       	cmp	#1,	r12	;r3 As==01
    673c:	0a 24       	jz	$+22     	;abs 0x6752
    673e:	2c 93       	cmp	#2,	r12	;r3 As==10
    6740:	05 24       	jz	$+12     	;abs 0x674c
    6742:	0c 93       	cmp	#0,	r12	;r3 As==00
    6744:	02 20       	jnz	$+6      	;abs 0x674a

00006746 <.Loc.132.1>:
    6746:	92 43 3c 53 	mov	#1,	&0x533c	;r3 As==01

0000674a <.L19>:
    674a:	30 41       	ret			

0000674c <.L21>:
    674c:	92 43 3e 53 	mov	#1,	&0x533e	;r3 As==01

00006750 <.Loc.136.1>:
    6750:	fc 3f       	jmp	$-6      	;abs 0x674a

00006752 <.L20>:
    6752:	92 43 40 53 	mov	#1,	&0x5340	;r3 As==01

00006756 <.Loc.139.1>:
    6756:	f9 3f       	jmp	$-12     	;abs 0x674a

00006758 <_commit_timer_buffers>:
    6758:	1a 15       	pushm	#2,	r10	;16-bit words

0000675a <.LCFI0>:
    675a:	0a 4c       	mov	r12,	r10	;

0000675c <.Loc.151.1>:
    675c:	1c 93       	cmp	#1,	r12	;r3 As==01
    675e:	52 24       	jz	$+166    	;abs 0x6804
    6760:	2c 93       	cmp	#2,	r12	;r3 As==10
    6762:	39 24       	jz	$+116    	;abs 0x67d6
    6764:	0c 93       	cmp	#0,	r12	;r3 As==00
    6766:	16 20       	jnz	$+46     	;abs 0x6794
    6768:	3f 40 74 52 	mov	#21108,	r15	;#0x5274
    676c:	39 40 92 52 	mov	#21138,	r9	;#0x5292

00006770 <.L28>:
    6770:	9f 93 6c 00 	cmp	#1,	108(r15);r3 As==01, 0x006c
    6774:	0b 20       	jnz	$+24     	;abs 0x678c

00006776 <.Loc.160.1>:
    6776:	7e 40 0a 00 	mov.b	#10,	r14	;#0x000a
    677a:	0d 4f       	mov	r15,	r13	;
    677c:	3d 50 64 00 	add	#100,	r13	;#0x0064
    6780:	0c 4f       	mov	r15,	r12	;
    6782:	b0 12 a8 69 	call	#27048		;#0x69a8
    6786:	0f 4c       	mov	r12,	r15	;

00006788 <.Loc.161.1>:
    6788:	8c 43 08 00 	mov	#0,	8(r12)	;r3 As==00

0000678c <.L27>:
    678c:	3f 50 0a 00 	add	#10,	r15	;#0x000a

00006790 <.Loc.155.1>:
    6790:	09 9f       	cmp	r15,	r9	;
    6792:	ee 23       	jnz	$-34     	;abs 0x6770

00006794 <.L26>:
    6794:	7f 40 03 00 	mov.b	#3,	r15	;

00006798 <.L33>:
    6798:	0c 4a       	mov	r10,	r12	;
    679a:	5c 0a       	rlam	#3,	r12	;

0000679c <.Loc.193.1>:
    679c:	9c 93 24 53 	cmp	#1,	21284(r12);r3 As==01, 0x5324
    67a0:	13 20       	jnz	$+40     	;abs 0x67c8

000067a2 <.Loc.195.1>:
    67a2:	0c 4a       	mov	r10,	r12	;
    67a4:	5c 0a       	rlam	#3,	r12	;
    67a6:	0d 4c       	mov	r12,	r13	;
    67a8:	3d 50 74 52 	add	#21108,	r13	;#0x5274
    67ac:	9d 4d aa 00 	mov	170(r13),70(r13)	;0x000aa, 0x0046
    67b0:	46 00 
    67b2:	9c 4c 20 53 	mov	21280(r12),21180(r12);0x05320, 0x52bc
    67b6:	bc 52 
    67b8:	9c 4c 22 53 	mov	21282(r12),21182(r12);0x05322, 0x52be
    67bc:	be 52 
    67be:	9c 4c 24 53 	mov	21284(r12),21184(r12);0x05324, 0x52c0
    67c2:	c0 52 

000067c4 <.Loc.197.1>:
    67c4:	8d 43 4c 00 	mov	#0,	76(r13)	;r3 As==00, 0x004c

000067c8 <.L32>:
    67c8:	4c 4f       	mov.b	r15,	r12	;
    67ca:	7c 53       	add.b	#-1,	r12	;r3 As==11
    67cc:	4f 4c       	mov.b	r12,	r15	;

000067ce <.Loc.191.1>:
    67ce:	4c 93       	cmp.b	#0,	r12	;r3 As==00
    67d0:	e3 23       	jnz	$-56     	;abs 0x6798

000067d2 <.Loc.201.1>:
    67d2:	19 17       	popm	#2,	r10	;16-bit words

000067d4 <.LCFI1>:
    67d4:	30 41       	ret			

000067d6 <.L25>:
    67d6:	39 40 74 52 	mov	#21108,	r9	;#0x5274

000067da <.L30>:
    67da:	99 93 8a 00 	cmp	#1,	138(r9)	;r3 As==01, 0x008a
    67de:	0c 20       	jnz	$+26     	;abs 0x67f8

000067e0 <.Loc.171.1>:
    67e0:	7e 40 0a 00 	mov.b	#10,	r14	;#0x000a
    67e4:	0d 49       	mov	r9,	r13	;
    67e6:	3d 50 82 00 	add	#130,	r13	;#0x0082
    67ea:	0c 49       	mov	r9,	r12	;
    67ec:	3c 50 1e 00 	add	#30,	r12	;#0x001e
    67f0:	b0 12 a8 69 	call	#27048		;#0x69a8

000067f4 <.Loc.172.1>:
    67f4:	89 43 26 00 	mov	#0,	38(r9)	;r3 As==00, 0x0026

000067f8 <.L29>:
    67f8:	39 50 0a 00 	add	#10,	r9	;#0x000a

000067fc <.Loc.166.1>:
    67fc:	39 90 92 52 	cmp	#21138,	r9	;#0x5292
    6800:	ec 23       	jnz	$-38     	;abs 0x67da
    6802:	c8 3f       	jmp	$-110    	;abs 0x6794

00006804 <.L24>:
    6804:	92 93 1c 53 	cmp	#1,	&0x531c	;r3 As==01
    6808:	c5 23       	jnz	$-116    	;abs 0x6794

0000680a <.Loc.182.1>:
    680a:	7e 40 0a 00 	mov.b	#10,	r14	;#0x000a
    680e:	3d 40 14 53 	mov	#21268,	r13	;#0x5314
    6812:	3c 40 b0 52 	mov	#21168,	r12	;#0x52b0
    6816:	b0 12 a8 69 	call	#27048		;#0x69a8

0000681a <.Loc.183.1>:
    681a:	82 43 b8 52 	mov	#0,	&0x52b8	;r3 As==00

0000681e <.Loc.177.1>:
    681e:	ba 3f       	jmp	$-138    	;abs 0x6794

00006820 <_pers_timer_commit>:
    6820:	1c 93       	cmp	#1,	r12	;r3 As==01
    6822:	16 24       	jz	$+46     	;abs 0x6850
    6824:	2c 93       	cmp	#2,	r12	;r3 As==10
    6826:	0b 24       	jz	$+24     	;abs 0x683e
    6828:	0c 93       	cmp	#0,	r12	;r3 As==00
    682a:	08 20       	jnz	$+18     	;abs 0x683c

0000682c <.Loc.207.1>:
    682c:	1d 42 3c 53 	mov	&0x533c,r13	;0x533c

00006830 <.Loc.207.1>:
    6830:	1d 93       	cmp	#1,	r13	;r3 As==01
    6832:	04 20       	jnz	$+10     	;abs 0x683c

00006834 <.Loc.209.1>:
    6834:	b0 12 58 67 	call	#26456		;#0x6758

00006838 <.LVL43>:
    6838:	a2 43 3c 53 	mov	#2,	&0x533c	;r3 As==10

0000683c <.L39>:
    683c:	30 41       	ret			

0000683e <.L41>:
    683e:	1d 42 3e 53 	mov	&0x533e,r13	;0x533e

00006842 <.Loc.214.1>:
    6842:	1d 93       	cmp	#1,	r13	;r3 As==01
    6844:	fb 23       	jnz	$-8      	;abs 0x683c

00006846 <.Loc.216.1>:
    6846:	b0 12 58 67 	call	#26456		;#0x6758

0000684a <.LVL45>:
    684a:	a2 43 3e 53 	mov	#2,	&0x533e	;r3 As==10
    684e:	f6 3f       	jmp	$-18     	;abs 0x683c

00006850 <.L40>:
    6850:	1d 42 40 53 	mov	&0x5340,r13	;0x5340

00006854 <.Loc.220.1>:
    6854:	1d 93       	cmp	#1,	r13	;r3 As==01
    6856:	f2 23       	jnz	$-26     	;abs 0x683c

00006858 <.Loc.222.1>:
    6858:	b0 12 58 67 	call	#26456		;#0x6758

0000685c <.LVL47>:
    685c:	a2 43 40 53 	mov	#2,	&0x5340	;r3 As==10

00006860 <.Loc.230.1>:
    6860:	ed 3f       	jmp	$-36     	;abs 0x683c

00006862 <_pers_timer_get>:
    6862:	0a 15       	pushm	#1,	r10	;16-bit words

00006864 <.LCFI3>:
    6864:	0a 4c       	mov	r12,	r10	;
    6866:	4f 4d       	mov.b	r13,	r15	;

00006868 <.Loc.233.1>:
    6868:	0d 4f       	mov	r15,	r13	;
    686a:	5d 06       	rlam	#2,	r13	;

0000686c <.LVL49>:
    686c:	0d 5f       	add	r15,	r13	;
    686e:	5d 02       	rlam	#1,	r13	;

00006870 <.Loc.233.1>:
    6870:	1e 93       	cmp	#1,	r14	;r3 As==01
    6872:	0b 24       	jz	$+24     	;abs 0x688a
    6874:	2e 93       	cmp	#2,	r14	;r3 As==10
    6876:	0e 20       	jnz	$+30     	;abs 0x6894

00006878 <.Loc.238.1>:
    6878:	7e 40 0a 00 	mov.b	#10,	r14	;#0x000a

0000687c <.LVL50>:
    687c:	3d 50 92 52 	add	#21138,	r13	;#0x5292

00006880 <.L47>:
    6880:	b0 12 a8 69 	call	#27048		;#0x69a8

00006884 <.LVL51>:
    6884:	0c 4a       	mov	r10,	r12	;
    6886:	0a 17       	popm	#1,	r10	;16-bit words

00006888 <.LCFI4>:
    6888:	30 41       	ret			

0000688a <.L44>:
    688a:	7e 40 0a 00 	mov.b	#10,	r14	;#0x000a

0000688e <.LVL53>:
    688e:	3d 50 b0 52 	add	#21168,	r13	;#0x52b0
    6892:	f6 3f       	jmp	$-18     	;abs 0x6880

00006894 <.L45>:
    6894:	7e 40 0a 00 	mov.b	#10,	r14	;#0x000a

00006898 <.LVL55>:
    6898:	3d 50 74 52 	add	#21108,	r13	;#0x5274
    689c:	f1 3f       	jmp	$-28     	;abs 0x6880

0000689e <_pers_timer_get_data>:
    689e:	4e 4c       	mov.b	r12,	r14	;

000068a0 <.Loc.249.1>:
    68a0:	1d 93       	cmp	#1,	r13	;r3 As==01
    68a2:	13 24       	jz	$+40     	;abs 0x68ca
    68a4:	2d 93       	cmp	#2,	r13	;r3 As==10
    68a6:	0a 24       	jz	$+22     	;abs 0x68bc
    68a8:	4c 43       	clr.b	r12		;

000068aa <.LVL57>:
    68aa:	0d 93       	cmp	#0,	r13	;r3 As==00
    68ac:	06 20       	jnz	$+14     	;abs 0x68ba

000068ae <.Loc.252.1>:
    68ae:	0c 4e       	mov	r14,	r12	;
    68b0:	5c 06       	rlam	#2,	r12	;
    68b2:	0c 5e       	add	r14,	r12	;
    68b4:	5c 02       	rlam	#1,	r12	;
    68b6:	1c 4c 78 52 	mov	21112(r12),r12	;0x05278

000068ba <.L48>:
    68ba:	30 41       	ret			

000068bc <.L50>:
    68bc:	0c 4e       	mov	r14,	r12	;

000068be <.LVL59>:
    68be:	5c 06       	rlam	#2,	r12	;
    68c0:	0c 5e       	add	r14,	r12	;
    68c2:	5c 02       	rlam	#1,	r12	;
    68c4:	1c 4c 96 52 	mov	21142(r12),r12	;0x05296
    68c8:	f8 3f       	jmp	$-14     	;abs 0x68ba

000068ca <.L49>:
    68ca:	0c 4e       	mov	r14,	r12	;

000068cc <.LVL61>:
    68cc:	5c 06       	rlam	#2,	r12	;
    68ce:	0c 5e       	add	r14,	r12	;
    68d0:	5c 02       	rlam	#1,	r12	;
    68d2:	1c 4c b4 52 	mov	21172(r12),r12	;0x052b4
    68d6:	f1 3f       	jmp	$-28     	;abs 0x68ba

000068d8 <_pers_timer_get_thread_id>:
    68d8:	4e 4c       	mov.b	r12,	r14	;

000068da <.Loc.266.1>:
    68da:	1d 93       	cmp	#1,	r13	;r3 As==01
    68dc:	13 24       	jz	$+40     	;abs 0x6904
    68de:	2d 93       	cmp	#2,	r13	;r3 As==10
    68e0:	0a 24       	jz	$+22     	;abs 0x68f6
    68e2:	4c 43       	clr.b	r12		;

000068e4 <.LVL63>:
    68e4:	0d 93       	cmp	#0,	r13	;r3 As==00
    68e6:	06 20       	jnz	$+14     	;abs 0x68f4

000068e8 <.Loc.269.1>:
    68e8:	0c 4e       	mov	r14,	r12	;
    68ea:	5c 06       	rlam	#2,	r12	;
    68ec:	0c 5e       	add	r14,	r12	;
    68ee:	5c 02       	rlam	#1,	r12	;
    68f0:	5c 4c 76 52 	mov.b	21110(r12),r12	;0x05276

000068f4 <.L56>:
    68f4:	30 41       	ret			

000068f6 <.L55>:
    68f6:	0c 4e       	mov	r14,	r12	;

000068f8 <.LVL65>:
    68f8:	5c 06       	rlam	#2,	r12	;
    68fa:	0c 5e       	add	r14,	r12	;
    68fc:	5c 02       	rlam	#1,	r12	;
    68fe:	5c 4c 94 52 	mov.b	21140(r12),r12	;0x05294
    6902:	f8 3f       	jmp	$-14     	;abs 0x68f4

00006904 <.L54>:
    6904:	0c 4e       	mov	r14,	r12	;

00006906 <.LVL67>:
    6906:	5c 06       	rlam	#2,	r12	;
    6908:	0c 5e       	add	r14,	r12	;
    690a:	5c 02       	rlam	#1,	r12	;
    690c:	5c 4c b2 52 	mov.b	21170(r12),r12	;0x052b2
    6910:	f1 3f       	jmp	$-28     	;abs 0x68f4

00006912 <_pers_timer_get_status>:
    6912:	4e 4c       	mov.b	r12,	r14	;

00006914 <.Loc.283.1>:
    6914:	1d 93       	cmp	#1,	r13	;r3 As==01
    6916:	13 24       	jz	$+40     	;abs 0x693e
    6918:	2d 93       	cmp	#2,	r13	;r3 As==10
    691a:	0a 24       	jz	$+22     	;abs 0x6930
    691c:	5c 43       	mov.b	#1,	r12	;r3 As==01

0000691e <.LVL69>:
    691e:	0d 93       	cmp	#0,	r13	;r3 As==00
    6920:	06 20       	jnz	$+14     	;abs 0x692e

00006922 <.Loc.286.1>:
    6922:	0c 4e       	mov	r14,	r12	;
    6924:	5c 06       	rlam	#2,	r12	;
    6926:	0c 5e       	add	r14,	r12	;
    6928:	5c 02       	rlam	#1,	r12	;
    692a:	1c 4c 74 52 	mov	21108(r12),r12	;0x05274

0000692e <.L58>:
    692e:	30 41       	ret			

00006930 <.L60>:
    6930:	0c 4e       	mov	r14,	r12	;

00006932 <.LVL71>:
    6932:	5c 06       	rlam	#2,	r12	;
    6934:	0c 5e       	add	r14,	r12	;
    6936:	5c 02       	rlam	#1,	r12	;
    6938:	1c 4c 92 52 	mov	21138(r12),r12	;0x05292
    693c:	f8 3f       	jmp	$-14     	;abs 0x692e

0000693e <.L59>:
    693e:	0c 4e       	mov	r14,	r12	;

00006940 <.LVL73>:
    6940:	5c 06       	rlam	#2,	r12	;
    6942:	0c 5e       	add	r14,	r12	;
    6944:	5c 02       	rlam	#1,	r12	;
    6946:	1c 4c b0 52 	mov	21168(r12),r12	;0x052b0
    694a:	f1 3f       	jmp	$-28     	;abs 0x692e

0000694c <_pers_timer_get_nxt_thread>:
    694c:	5c 0a       	rlam	#3,	r12	;

0000694e <.LVL75>:
    694e:	5c 4c bc 52 	mov.b	21180(r12),r12	;0x052bc
    6952:	30 41       	ret			

00006954 <_pers_timer_get_nxt_time>:
    6954:	5c 0a       	rlam	#3,	r12	;

00006956 <.LVL77>:
    6956:	1c 4c be 52 	mov	21182(r12),r12	;0x052be
    695a:	30 41       	ret			

0000695c <__mulhi2>:
    695c:	02 12       	push	r2		;
    695e:	32 c2       	dint			
    6960:	03 43       	nop			
    6962:	82 4c c0 04 	mov	r12,	&0x04c0	;
    6966:	82 4d c8 04 	mov	r13,	&0x04c8	;
    696a:	1c 42 ca 04 	mov	&0x04ca,r12	;0x04ca
    696e:	00 13       	reti			

00006970 <__umulhisi2>:
    6970:	02 12       	push	r2		;
    6972:	32 c2       	dint			
    6974:	03 43       	nop			
    6976:	82 4c c0 04 	mov	r12,	&0x04c0	;
    697a:	82 4d c8 04 	mov	r13,	&0x04c8	;
    697e:	1c 42 ca 04 	mov	&0x04ca,r12	;0x04ca
    6982:	
00006984 <L0^A>:
    6984:	cc 04       	mova	r4,	r12	;
    6986:	00 13       	reti			

00006988 <__mulsi2>:
    6988:	02 12       	push	r2		;
    698a:	32 c2       	dint			
    698c:	03 43       	nop			
    698e:	82 4c d0 04 	mov	r12,	&0x04d0	;
    6992:	82 4d d2 04 	mov	r13,	&0x04d2	;
    6996:	82 4e e0 04 	mov	r14,	&0x04e0	;
    699a:	82 4f e2 04 	mov	r15,	&0x04e2	;
    699e:	1c 42 e4 04 	mov	&0x04e4,r12	;0x04e4
    69a2:	1d 42 e6 04 	mov	&0x04e6,r13	;0x04e6
    69a6:	00 13       	reti			

000069a8 <memcpy>:
    69a8:	0f 4c       	mov	r12,	r15	;
    69aa:	0e 5d       	add	r13,	r14	;

000069ac <.L2>:
    69ac:	0d 9e       	cmp	r14,	r13	;
    69ae:	01 20       	jnz	$+4      	;abs 0x69b2

000069b0 <.Loc.111.1>:
    69b0:	30 41       	ret			

000069b2 <.L3>:
    69b2:	ff 4d 00 00 	mov.b	@r13+,	0(r15)	;

000069b6 <.LVL4>:
    69b6:	1f 53       	inc	r15		;
    69b8:	f9 3f       	jmp	$-12     	;abs 0x69ac

000069ba <_exit>:
    69ba:	ff 3f       	jmp	$+0      	;abs 0x69ba

000069bc <memset>:
    69bc:	0e 5c       	add	r12,	r14	;

000069be <L0^A>:
    69be:	0f 4c       	mov	r12,	r15	;

000069c0 <.L2>:
    69c0:	0f 9e       	cmp	r14,	r15	;
    69c2:	01 20       	jnz	$+4      	;abs 0x69c6

000069c4 <.Loc.104.1>:
    69c4:	30 41       	ret			

000069c6 <.L3>:
    69c6:	1f 53       	inc	r15		;

000069c8 <.LVL4>:
    69c8:	cf 4d ff ff 	mov.b	r13,	-1(r15)	; 0xffff
    69cc:	f9 3f       	jmp	$-12     	;abs 0x69c0
