
bin/cuckoo_eval:     file format elf32-msp430


Disassembly of section __interrupt_vector_35:

0000ffd4 <__interrupt_vector_35>:
    ffd4:	0c 73       	sbc	r12		;

Disassembly of section .text:

00005548 <__crt0_start>:
    5548:	31 40 00 24 	mov	#9216,	r1	;#0x2400

0000554c <__crt0_init_bss>:
    554c:	3c 40 c8 1c 	mov	#7368,	r12	;#0x1cc8

00005550 <.Loc.76.1>:
    5550:	0d 43       	clr	r13		;

00005552 <.Loc.77.1>:
    5552:	3e 40 68 00 	mov	#104,	r14	;#0x0068

00005556 <.Loc.81.1>:
    5556:	b0 12 9e 77 	call	#30622		;#0x779e

0000555a <__crt0_movedata>:
    555a:	3c 40 00 1c 	mov	#7168,	r12	;#0x1c00

0000555e <.Loc.116.1>:
    555e:	3d 40 7e 54 	mov	#21630,	r13	;#0x547e

00005562 <.Loc.119.1>:
    5562:	0d 9c       	cmp	r12,	r13	;

00005564 <.Loc.120.1>:
    5564:	04 24       	jz	$+10     	;abs 0x556e

00005566 <.Loc.122.1>:
    5566:	3e 40 c8 00 	mov	#200,	r14	;#0x00c8

0000556a <.Loc.124.1>:
    556a:	b0 12 60 7a 	call	#31328		;#0x7a60

0000556e <__crt0_run_init_array>:
    556e:	34 40 24 45 	mov	#17700,	r4	;#0x4524

00005572 <.Loc.189.1>:
    5572:	35 40 2c 45 	mov	#17708,	r5	;#0x452c

00005576 <.Loc.190.1>:
    5576:	26 43       	mov	#2,	r6	;r3 As==10

00005578 <.Loc.191.1>:
    5578:	b0 12 86 55 	call	#21894		;#0x5586

0000557c <__crt0_call_main>:
    557c:	0c 43       	clr	r12		;

0000557e <.Loc.254.1>:
    557e:	b0 12 94 55 	call	#21908		;#0x5594

00005582 <__crt0_call_exit>:
    5582:	b0 12 a8 79 	call	#31144		;#0x79a8

00005586 <__crt0_run_array>:
    5586:	05 94       	cmp	r4,	r5	;

00005588 <.Loc.294.1>:
    5588:	04 24       	jz	$+10     	;abs 0x5592

0000558a <.Loc.295.1>:
    558a:	27 44       	mov	@r4,	r7	;

0000558c <.Loc.296.1>:
    558c:	04 56       	add	r6,	r4	;

0000558e <.Loc.297.1>:
    558e:	87 12       	call	r7		;

00005590 <.Loc.298.1>:
    5590:	fa 3f       	jmp	$-10     	;abs 0x5586

00005592 <_msp430_run_done>:
    5592:	30 41       	ret			

00005594 <main>:
    5594:	
00005596 <L0^A>:
    5596:	80 5a 5c 01 	add	r10,	0x015c	; PC rel. 0x56f4

0000559a <.Loc.10.1>:
    559a:	92 c3 30 01 	bic	#1,	&0x0130	;r3 As==01

0000559e <.Loc.13.1>:
    559e:	f2 f0 ef ff 	and.b	#-17,	&0x0222	;#0xffef
    55a2:	22 02 

000055a4 <.Loc.13.1>:
    55a4:	f2 d0 10 00 	bis.b	#16,	&0x0224	;#0x0010
    55a8:	24 02 

000055aa <.Loc.13.1>:
    55aa:	f2 f0 ef ff 	and.b	#-17,	&0x0222	;#0xffef
    55ae:	22 02 

000055b0 <.Loc.13.1>:
    55b0:	b0 12 28 61 	call	#24872		;#0x6128

000055b4 <.Loc.18.1>:
    55b4:	4c 43       	clr.b	r12		;
    55b6:	30 41       	ret			

000055b8 <task_print_stats>:
    55b8:	3c 40 dc 59 	mov	#23004,	r12	;#0x59dc
    55bc:	30 41       	ret			

000055be <__ink_entry_task>:
    55be:	0a 15       	pushm	#1,	r10	;16-bit words

000055c0 <.LCFI0>:
    55c0:	d2 43 60 45 	mov.b	#1,	&0x4560	;r3 As==01

000055c4 <.Loc.169.1>:
    55c4:	b0 12 08 5b 	call	#23304		;#0x5b08

000055c8 <.LVL1>:
    55c8:	0a 4c       	mov	r12,	r10	;
    55ca:	5a 02       	rlam	#1,	r10	;
    55cc:	0a 5c       	add	r12,	r10	;
    55ce:	5a 06       	rlam	#2,	r10	;
    55d0:	0a 5c       	add	r12,	r10	;
    55d2:	5a 02       	rlam	#1,	r10	;
    55d4:	3e 40 00 01 	mov	#256,	r14	;#0x0100
    55d8:	4d 43       	clr.b	r13		;
    55da:	1c 4a 2c 45 	mov	17708(r10),r12	;0x0452c
    55de:	b0 12 9e 77 	call	#30622		;#0x779e

000055e2 <.Loc.175.1>:
    55e2:	1c 4a 3a 45 	mov	17722(r10),r12	;0x0453a
    55e6:	8c 43 00 00 	mov	#0,	0(r12)	;r3 As==00

000055ea <.Loc.176.1>:
    55ea:	1c 4a 3e 45 	mov	17726(r10),r12	;0x0453e
    55ee:	8c 43 00 00 	mov	#0,	0(r12)	;r3 As==00

000055f2 <.Loc.177.1>:
    55f2:	1c 4a 3c 45 	mov	17724(r10),r12	;0x0453c
    55f6:	8c 43 00 00 	mov	#0,	0(r12)	;r3 As==00

000055fa <.Loc.178.1>:
    55fa:	1c 4a 40 45 	mov	17728(r10),r12	;0x04540
    55fe:	8c 43 00 00 	mov	#0,	0(r12)	;r3 As==00

00005602 <.Loc.179.1>:
    5602:	1c 4a 2e 45 	mov	17710(r10),r12	;0x0452e
    5606:	9c 43 00 00 	mov	#1,	0(r12)	;r3 As==01

0000560a <.Loc.180.1>:
    560a:	1c 4a 30 45 	mov	17712(r10),r12	;0x04530

0000560e <.Loc.173.1>:
    560e:	3a 50 2c 45 	add	#17708,	r10	;#0x452c

00005612 <.Loc.180.1>:
    5612:	bc 40 06 00 	mov	#6,	0(r12)	;
    5616:	00 00 

00005618 <.Loc.182.1>:
    5618:	3c 40 20 56 	mov	#22048,	r12	;#0x5620
    561c:	0a 17       	popm	#1,	r10	;16-bit words

0000561e <.LCFI1>:
    561e:	30 41       	ret			

00005620 <task_generate_key>:
    5620:	b0 12 08 5b 	call	#23304		;#0x5b08
    5624:	0d 4c       	mov	r12,	r13	;

00005626 <.Loc.193.1>:
    5626:	5c 02       	rlam	#1,	r12	;
    5628:	0c 5d       	add	r13,	r12	;
    562a:	5c 06       	rlam	#2,	r12	;
    562c:	0c 5d       	add	r13,	r12	;
    562e:	5c 02       	rlam	#1,	r12	;
    5630:	1d 4c 2e 45 	mov	17710(r12),r13	;0x0452e
    5634:	3c 50 2c 45 	add	#17708,	r12	;#0x452c

00005638 <.Loc.196.1>:
    5638:	2e 4d       	mov	@r13,	r14	;
    563a:	1e 53       	inc	r14		;

0000563c <.Loc.196.1>:
    563c:	0f 4e       	mov	r14,	r15	;
    563e:	5f 0e       	rlam	#4,	r15	;

00005640 <.Loc.197.1>:
    5640:	0f 5e       	add	r14,	r15	;
    5642:	8d 4f 00 00 	mov	r15,	0(r13)	;

00005646 <.Loc.199.1>:
    5646:	1c 4c 04 00 	mov	4(r12),	r12	;
    564a:	2c 4c       	mov	@r12,	r12	;

0000564c <.LVL10>:
    564c:	3c 90 06 00 	cmp	#6,	r12	;
    5650:	04 24       	jz	$+10     	;abs 0x565a

00005652 <.Loc.205.1>:
    5652:	3c 90 0a 00 	cmp	#10,	r12	;#0x000a
    5656:	04 24       	jz	$+10     	;abs 0x5660

00005658 <.L6>:
    5658:	ff 3f       	jmp	$+0      	;abs 0x5658

0000565a <.L7>:
    565a:	3c 40 f0 58 	mov	#22768,	r12	;#0x58f0

0000565e <.LVL11>:
    565e:	30 41       	ret			

00005660 <.L8>:
    5660:	3c 40 66 56 	mov	#22118,	r12	;#0x5666

00005664 <.LVL13>:
    5664:	30 41       	ret			

00005666 <task_lookup>:
    5666:	b0 12 08 5b 	call	#23304		;#0x5b08
    566a:	0d 4c       	mov	r12,	r13	;

0000566c <.Loc.390.1>:
    566c:	5c 02       	rlam	#1,	r12	;
    566e:	0c 5d       	add	r13,	r12	;
    5670:	5c 06       	rlam	#2,	r12	;
    5672:	0c 5d       	add	r13,	r12	;
    5674:	5c 02       	rlam	#1,	r12	;

00005676 <.Loc.390.1>:
    5676:	1c 4c 30 45 	mov	17712(r12),r12	;0x04530
    567a:	bc 40 0b 00 	mov	#11,	0(r12)	;#0x000b
    567e:	00 00 

00005680 <.Loc.391.1>:
    5680:	3c 40 86 56 	mov	#22150,	r12	;#0x5686
    5684:	30 41       	ret			

00005686 <task_calc_indexes>:
    5686:	b0 12 08 5b 	call	#23304		;#0x5b08
    568a:	0d 4c       	mov	r12,	r13	;

0000568c <.Loc.219.1>:
    568c:	5c 02       	rlam	#1,	r12	;
    568e:	0c 5d       	add	r13,	r12	;
    5690:	5c 06       	rlam	#2,	r12	;
    5692:	0c 5d       	add	r13,	r12	;
    5694:	5c 02       	rlam	#1,	r12	;

00005696 <.Loc.220.1>:
    5696:	1e 4c 2e 45 	mov	17710(r12),r14	;0x0452e

0000569a <.Loc.220.1>:
    569a:	3c 50 2c 45 	add	#17708,	r12	;#0x452c

0000569e <.LBB22>:
    569e:	6d 4e       	mov.b	@r14,	r13	;
    56a0:	3d 50 a5 b5 	add	#-19035,r13	;#0xb5a5

000056a4 <.LVL22>:
    56a4:	0f 4d       	mov	r13,	r15	;
    56a6:	44 18 0f 5f 	rpt #5 { rlax.w	r15		;
    56aa:	5e 4e 01 00 	mov.b	1(r14),	r14	;
    56ae:	0d 5e       	add	r14,	r13	;

000056b0 <.LBE22>:
    56b0:	1c 4c 06 00 	mov	6(r12),	r12	;

000056b4 <.Loc.130.1>:
    56b4:	0d 5f       	add	r15,	r13	;

000056b6 <.LVL24>:
    56b6:	8c 4d 00 00 	mov	r13,	0(r12)	;

000056ba <.Loc.223.1>:
    56ba:	3c 40 c0 56 	mov	#22208,	r12	;#0x56c0
    56be:	30 41       	ret			

000056c0 <task_calc_indexes_index_1>:
    56c0:	b0 12 08 5b 	call	#23304		;#0x5b08
    56c4:	0d 4c       	mov	r12,	r13	;

000056c6 <.Loc.229.1>:
    56c6:	5c 02       	rlam	#1,	r12	;
    56c8:	0c 5d       	add	r13,	r12	;
    56ca:	5c 06       	rlam	#2,	r12	;
    56cc:	0c 5d       	add	r13,	r12	;
    56ce:	5c 02       	rlam	#1,	r12	;

000056d0 <.Loc.230.1>:
    56d0:	1e 4c 2e 45 	mov	17710(r12),r14	;0x0452e

000056d4 <.Loc.230.1>:
    56d4:	3c 50 2c 45 	add	#17708,	r12	;#0x452c

000056d8 <.LBB28>:
    56d8:	6d 4e       	mov.b	@r14,	r13	;
    56da:	3d 50 a5 b5 	add	#-19035,r13	;#0xb5a5

000056de <.LVL30>:
    56de:	0f 4d       	mov	r13,	r15	;
    56e0:	44 18 0f 5f 	rpt #5 { rlax.w	r15		;
    56e4:	5e 4e 01 00 	mov.b	1(r14),	r14	;
    56e8:	0d 5e       	add	r14,	r13	;

000056ea <.LBE28>:
    56ea:	1c 4c 08 00 	mov	8(r12),	r12	;

000056ee <.Loc.130.1>:
    56ee:	0d 5f       	add	r15,	r13	;

000056f0 <.LVL32>:
    56f0:	7d f0 7f 00 	and.b	#127,	r13	;#0x007f

000056f4 <.LVL33>:
    56f4:	8c 4d 00 00 	mov	r13,	0(r12)	;

000056f8 <.Loc.233.1>:
    56f8:	3c 40 fe 56 	mov	#22270,	r12	;#0x56fe
    56fc:	30 41       	ret			

000056fe <task_calc_indexes_index_2>:
    56fe:	b0 12 08 5b 	call	#23304		;#0x5b08
    5702:	0d 4c       	mov	r12,	r13	;

00005704 <.Loc.239.1>:
    5704:	5c 02       	rlam	#1,	r12	;
    5706:	0c 5d       	add	r13,	r12	;
    5708:	5c 06       	rlam	#2,	r12	;
    570a:	0c 5d       	add	r13,	r12	;
    570c:	5c 02       	rlam	#1,	r12	;

0000570e <.Loc.239.1>:
    570e:	1f 4c 32 45 	mov	17714(r12),r15	;0x04532

00005712 <.LBB36>:
    5712:	6e 4f       	mov.b	@r15,	r14	;
    5714:	3e 50 a5 b5 	add	#-19035,r14	;#0xb5a5

00005718 <.LVL38>:
    5718:	0d 4e       	mov	r14,	r13	;
    571a:	44 18 0d 5d 	rpt #5 { rlax.w	r13		;
    571e:	5f 4f 01 00 	mov.b	1(r15),	r15	;

00005722 <.LVL40>:
    5722:	0e 5f       	add	r15,	r14	;

00005724 <.LBE36>:
    5724:	1f 4c 36 45 	mov	17718(r12),r15	;0x04536

00005728 <.Loc.243.1>:
    5728:	1b 4c 34 45 	mov	17716(r12),r11	;0x04534

0000572c <.Loc.239.1>:
    572c:	3c 50 2c 45 	add	#17708,	r12	;#0x452c

00005730 <.Loc.130.1>:
    5730:	0d 5e       	add	r14,	r13	;

00005732 <.LVL42>:
    5732:	7d f0 7f 00 	and.b	#127,	r13	;#0x007f

00005736 <.LVL43>:
    5736:	2d eb       	xor	@r11,	r13	;

00005738 <.LVL44>:
    5738:	8f 4d 00 00 	mov	r13,	0(r15)	;

0000573c <.Loc.247.1>:
    573c:	1c 4c 04 00 	mov	4(r12),	r12	;
    5740:	2c 4c       	mov	@r12,	r12	;

00005742 <.LVL46>:
    5742:	3c 90 07 00 	cmp	#7,	r12	;
    5746:	04 24       	jz	$+10     	;abs 0x5750

00005748 <.Loc.253.1>:
    5748:	3c 90 0b 00 	cmp	#11,	r12	;#0x000b
    574c:	04 24       	jz	$+10     	;abs 0x5756

0000574e <.L14>:
    574e:	ff 3f       	jmp	$+0      	;abs 0x574e

00005750 <.L15>:
    5750:	3c 40 10 59 	mov	#22800,	r12	;#0x5910

00005754 <.LVL47>:
    5754:	30 41       	ret			

00005756 <.L16>:
    5756:	3c 40 5c 57 	mov	#22364,	r12	;#0x575c

0000575a <.LVL49>:
    575a:	30 41       	ret			

0000575c <task_lookup_search>:
    575c:	b0 12 08 5b 	call	#23304		;#0x5b08
    5760:	0d 4c       	mov	r12,	r13	;

00005762 <.Loc.397.1>:
    5762:	5c 02       	rlam	#1,	r12	;
    5764:	0c 5d       	add	r13,	r12	;
    5766:	5c 06       	rlam	#2,	r12	;
    5768:	0c 5d       	add	r13,	r12	;
    576a:	5c 02       	rlam	#1,	r12	;
    576c:	3c 50 2c 45 	add	#17708,	r12	;#0x452c
    5770:	2e 4c       	mov	@r12,	r14	;

00005772 <.Loc.397.1>:
    5772:	1d 4c 06 00 	mov	6(r12),	r13	;
    5776:	2f 4d       	mov	@r13,	r15	;

00005778 <.Loc.397.1>:
    5778:	1d 4c 08 00 	mov	8(r12),	r13	;

0000577c <.Loc.397.1>:
    577c:	2d 4d       	mov	@r13,	r13	;
    577e:	5d 02       	rlam	#1,	r13	;
    5780:	0d 5e       	add	r14,	r13	;

00005782 <.Loc.397.1>:
    5782:	8d 9f 00 00 	cmp	r15,	0(r13)	;
    5786:	13 24       	jz	$+40     	;abs 0x57ae

00005788 <.Loc.403.1>:
    5788:	1d 4c 18 00 	mov	24(r12),r13	;0x00018

0000578c <.Loc.403.1>:
    578c:	1c 4c 0a 00 	mov	10(r12),r12	;0x0000a

00005790 <.Loc.403.1>:
    5790:	2c 4c       	mov	@r12,	r12	;
    5792:	5c 02       	rlam	#1,	r12	;
    5794:	0e 5c       	add	r12,	r14	;

00005796 <.Loc.403.1>:
    5796:	2f 9e       	cmp	@r14,	r15	;
    5798:	05 24       	jz	$+12     	;abs 0x57a4

0000579a <.Loc.409.1>:
    579a:	cd 43 00 00 	mov.b	#0,	0(r13)	;r3 As==00

0000579e <.Loc.413.1>:
    579e:	3c 40 bc 57 	mov	#22460,	r12	;#0x57bc
    57a2:	30 41       	ret			

000057a4 <.L22>:
    57a4:	dd 43 00 00 	mov.b	#1,	0(r13)	;r3 As==01

000057a8 <.Loc.413.1>:
    57a8:	3c 40 bc 57 	mov	#22460,	r12	;#0x57bc
    57ac:	30 41       	ret			

000057ae <.L21>:
    57ae:	1c 4c 18 00 	mov	24(r12),r12	;0x00018
    57b2:	dc 43 00 00 	mov.b	#1,	0(r12)	;r3 As==01

000057b6 <.Loc.413.1>:
    57b6:	3c 40 bc 57 	mov	#22460,	r12	;#0x57bc
    57ba:	30 41       	ret			

000057bc <task_lookup_done>:
    57bc:	b0 12 08 5b 	call	#23304		;#0x5b08
    57c0:	0d 4c       	mov	r12,	r13	;

000057c2 <.Loc.419.1>:
    57c2:	5c 02       	rlam	#1,	r12	;
    57c4:	0c 5d       	add	r13,	r12	;
    57c6:	5c 06       	rlam	#2,	r12	;
    57c8:	0c 5d       	add	r13,	r12	;
    57ca:	5c 02       	rlam	#1,	r12	;
    57cc:	1d 4c 3e 45 	mov	17726(r12),r13	;0x0453e

000057d0 <.Loc.420.1>:
    57d0:	9d 53 00 00 	inc	0(r13)		;

000057d4 <.Loc.421.1>:
    57d4:	1e 4c 40 45 	mov	17728(r12),r14	;0x04540

000057d8 <.Loc.422.1>:
    57d8:	1f 4c 44 45 	mov	17732(r12),r15	;0x04544

000057dc <.Loc.420.1>:
    57dc:	3c 50 2c 45 	add	#17708,	r12	;#0x452c

000057e0 <.Loc.422.1>:
    57e0:	6f 4f       	mov.b	@r15,	r15	;
    57e2:	8e 5f 00 00 	add	r15,	0(r14)	;

000057e6 <.Loc.425.1>:
    57e6:	7e 40 1f 00 	mov.b	#31,	r14	;#0x001f
    57ea:	2e 9d       	cmp	@r13,	r14	;
    57ec:	08 28       	jnc	$+18     	;abs 0x57fe

000057ee <.Loc.427.1>:
    57ee:	1c 4c 04 00 	mov	4(r12),	r12	;
    57f2:	bc 40 0a 00 	mov	#10,	0(r12)	;#0x000a
    57f6:	00 00 

000057f8 <.Loc.429.1>:
    57f8:	3c 40 20 56 	mov	#22048,	r12	;#0x5620

000057fc <.Loc.435.1>:
    57fc:	30 41       	ret			

000057fe <.L25>:
    57fe:	3c 40 b8 55 	mov	#21944,	r12	;#0x55b8

00005802 <.Loc.435.1>:
    5802:	30 41       	ret			

00005804 <task_relocate>:
    5804:	3a 15       	pushm	#4,	r10	;16-bit words

00005806 <.LCFI2>:
    5806:	b0 12 08 5b 	call	#23304		;#0x5b08
    580a:	0d 4c       	mov	r12,	r13	;

0000580c <.Loc.329.1>:
    580c:	5c 02       	rlam	#1,	r12	;
    580e:	0c 5d       	add	r13,	r12	;
    5810:	5c 06       	rlam	#2,	r12	;
    5812:	0c 5d       	add	r13,	r12	;
    5814:	5c 02       	rlam	#1,	r12	;
    5816:	3c 50 2c 45 	add	#17708,	r12	;#0x452c
    581a:	1f 4c 06 00 	mov	6(r12),	r15	;

0000581e <.LBB44>:
    581e:	6e 4f       	mov.b	@r15,	r14	;
    5820:	3e 50 a5 b5 	add	#-19035,r14	;#0xb5a5

00005824 <.LVL63>:
    5824:	0d 4e       	mov	r14,	r13	;
    5826:	44 18 0d 5d 	rpt #5 { rlax.w	r13		;

0000582a <.Loc.130.1>:
    582a:	2a 4f       	mov	@r15,	r10	;
    582c:	57 4f 01 00 	mov.b	1(r15),	r7	;
    5830:	0e 57       	add	r7,	r14	;

00005832 <.LBE44>:
    5832:	1b 4c 08 00 	mov	8(r12),	r11	;

00005836 <.Loc.130.1>:
    5836:	0d 5e       	add	r14,	r13	;

00005838 <.LVL66>:
    5838:	7d f0 7f 00 	and.b	#127,	r13	;#0x007f

0000583c <.LVL67>:
    583c:	2d eb       	xor	@r11,	r13	;

0000583e <.LVL68>:
    583e:	0e 4d       	mov	r13,	r14	;
    5840:	5e 02       	rlam	#1,	r14	;
    5842:	2e 5c       	add	@r12,	r14	;

00005844 <.Loc.334.1>:
    5844:	8e 93 00 00 	cmp	#0,	0(r14)	;r3 As==00
    5848:	1c 24       	jz	$+58     	;abs 0x5882

0000584a <.Loc.345.1>:
    584a:	19 4c 0c 00 	mov	12(r12),r9	;0x0000c
    584e:	28 49       	mov	@r9,	r8	;

00005850 <.Loc.345.1>:
    5850:	77 40 07 00 	mov.b	#7,	r7	;
    5854:	07 98       	cmp	r8,	r7	;
    5856:	08 2c       	jc	$+18     	;abs 0x5868

00005858 <.Loc.347.1>:
    5858:	1c 4c 16 00 	mov	22(r12),r12	;0x00016
    585c:	cc 43 00 00 	mov.b	#0,	0(r12)	;r3 As==00

00005860 <.Loc.349.1>:
    5860:	3c 40 96 58 	mov	#22678,	r12	;#0x5896

00005864 <.Loc.360.1>:
    5864:	37 17       	popm	#4,	r10	;16-bit words

00005866 <.LCFI3>:
    5866:	30 41       	ret			

00005868 <.L29>:
    5868:	18 53       	inc	r8		;
    586a:	89 48 00 00 	mov	r8,	0(r9)	;

0000586e <.LVL71>:
    586e:	8b 4d 00 00 	mov	r13,	0(r11)	;

00005872 <.LVL72>:
    5872:	af 4e 00 00 	mov	@r14,	0(r15)	;

00005876 <.LVL73>:
    5876:	8e 4a 00 00 	mov	r10,	0(r14)	;

0000587a <.LVL74>:
    587a:	3c 40 04 58 	mov	#22532,	r12	;#0x5804

0000587e <.Loc.360.1>:
    587e:	37 17       	popm	#4,	r10	;16-bit words

00005880 <.LCFI5>:
    5880:	30 41       	ret			

00005882 <.L30>:
    5882:	1c 4c 16 00 	mov	22(r12),r12	;0x00016
    5886:	dc 43 00 00 	mov.b	#1,	0(r12)	;r3 As==01

0000588a <.Loc.338.1>:
    588a:	8e 4a 00 00 	mov	r10,	0(r14)	;

0000588e <.Loc.340.1>:
    588e:	3c 40 96 58 	mov	#22678,	r12	;#0x5896

00005892 <.Loc.360.1>:
    5892:	37 17       	popm	#4,	r10	;16-bit words

00005894 <.LCFI7>:
    5894:	30 41       	ret			

00005896 <task_insert_done>:
    5896:	b0 12 08 5b 	call	#23304		;#0x5b08
    589a:	0d 4c       	mov	r12,	r13	;

0000589c <.Loc.365.1>:
    589c:	5c 02       	rlam	#1,	r12	;
    589e:	0c 5d       	add	r13,	r12	;
    58a0:	5c 06       	rlam	#2,	r12	;
    58a2:	0c 5d       	add	r13,	r12	;
    58a4:	5c 02       	rlam	#1,	r12	;
    58a6:	3c 50 2c 45 	add	#17708,	r12	;#0x452c
    58aa:	1d 4c 0e 00 	mov	14(r12),r13	;0x0000e

000058ae <.Loc.366.1>:
    58ae:	9d 53 00 00 	inc	0(r13)		;

000058b2 <.Loc.367.1>:
    58b2:	1e 4c 10 00 	mov	16(r12),r14	;0x00010

000058b6 <.Loc.368.1>:
    58b6:	1f 4c 16 00 	mov	22(r12),r15	;0x00016

000058ba <.Loc.368.1>:
    58ba:	6f 4f       	mov.b	@r15,	r15	;
    58bc:	8e 5f 00 00 	add	r15,	0(r14)	;

000058c0 <.Loc.372.1>:
    58c0:	7e 40 1f 00 	mov.b	#31,	r14	;#0x001f
    58c4:	2e 9d       	cmp	@r13,	r14	;
    58c6:	08 28       	jnc	$+18     	;abs 0x58d8

000058c8 <.Loc.374.1>:
    58c8:	1c 4c 04 00 	mov	4(r12),	r12	;
    58cc:	bc 40 06 00 	mov	#6,	0(r12)	;
    58d0:	00 00 

000058d2 <.Loc.376.1>:
    58d2:	3c 40 20 56 	mov	#22048,	r12	;#0x5620
    58d6:	30 41       	ret			

000058d8 <.L32>:
    58d8:	1d 4c 04 00 	mov	4(r12),	r13	;
    58dc:	bd 40 0a 00 	mov	#10,	0(r13)	;#0x000a
    58e0:	00 00 

000058e2 <.Loc.381.1>:
    58e2:	1c 4c 02 00 	mov	2(r12),	r12	;
    58e6:	9c 43 00 00 	mov	#1,	0(r12)	;r3 As==01

000058ea <.Loc.383.1>:
    58ea:	3c 40 20 56 	mov	#22048,	r12	;#0x5620
    58ee:	30 41       	ret			

000058f0 <task_insert>:
    58f0:	b0 12 08 5b 	call	#23304		;#0x5b08
    58f4:	0d 4c       	mov	r12,	r13	;

000058f6 <.Loc.267.1>:
    58f6:	5c 02       	rlam	#1,	r12	;
    58f8:	0c 5d       	add	r13,	r12	;
    58fa:	5c 06       	rlam	#2,	r12	;
    58fc:	0c 5d       	add	r13,	r12	;
    58fe:	5c 02       	rlam	#1,	r12	;

00005900 <.Loc.267.1>:
    5900:	1c 4c 30 45 	mov	17712(r12),r12	;0x04530
    5904:	bc 40 07 00 	mov	#7,	0(r12)	;
    5908:	00 00 

0000590a <.Loc.268.1>:
    590a:	3c 40 86 56 	mov	#22150,	r12	;#0x5686
    590e:	30 41       	ret			

00005910 <task_add>:
    5910:	6a 15       	pushm	#7,	r10	;16-bit words

00005912 <.LCFI8>:
    5912:	21 82       	sub	#4,	r1	;r2 As==10

00005914 <.LCFI9>:
    5914:	b0 12 08 5b 	call	#23304		;#0x5b08
    5918:	09 4c       	mov	r12,	r9	;

0000591a <.Loc.274.1>:
    591a:	37 40 2c 45 	mov	#17708,	r7	;#0x452c
    591e:	08 4c       	mov	r12,	r8	;
    5920:	58 02       	rlam	#1,	r8	;
    5922:	0a 48       	mov	r8,	r10	;
    5924:	0a 5c       	add	r12,	r10	;
    5926:	5a 06       	rlam	#2,	r10	;
    5928:	0a 5c       	add	r12,	r10	;
    592a:	5a 02       	rlam	#1,	r10	;
    592c:	0a 57       	add	r7,	r10	;

0000592e <.Loc.275.1>:
    592e:	1c 4a 08 00 	mov	8(r10),	r12	;
    5932:	26 4c       	mov	@r12,	r6	;

00005934 <.LVL87>:
    5934:	1c 4a 06 00 	mov	6(r10),	r12	;
    5938:	2e 4c       	mov	@r12,	r14	;

0000593a <.LVL88>:
    593a:	2c 4a       	mov	@r10,	r12	;

0000593c <.Loc.279.1>:
    593c:	05 46       	mov	r6,	r5	;
    593e:	55 02       	rlam	#1,	r5	;
    5940:	0d 4c       	mov	r12,	r13	;
    5942:	0d 55       	add	r5,	r13	;

00005944 <.Loc.279.1>:
    5944:	8d 93 00 00 	cmp	#0,	0(r13)	;r3 As==00
    5948:	3b 24       	jz	$+120    	;abs 0x59c0

0000594a <.Loc.276.1>:
    594a:	1d 4a 0a 00 	mov	10(r10),r13	;0x0000a
    594e:	2d 4d       	mov	@r13,	r13	;

00005950 <.Loc.289.1>:
    5950:	04 4d       	mov	r13,	r4	;
    5952:	54 02       	rlam	#1,	r4	;
    5954:	0c 54       	add	r4,	r12	;

00005956 <.Loc.289.1>:
    5956:	8c 93 00 00 	cmp	#0,	0(r12)	;r3 As==00
    595a:	0b 20       	jnz	$+24     	;abs 0x5972

0000595c <.Loc.291.1>:
    595c:	1d 4a 16 00 	mov	22(r10),r13	;0x00016
    5960:	dd 43 00 00 	mov.b	#1,	0(r13)	;r3 As==01

00005964 <.LVL89>:
    5964:	8c 4e 00 00 	mov	r14,	0(r12)	;

00005968 <.LVL90>:
    5968:	3c 40 96 58 	mov	#22678,	r12	;#0x5896

0000596c <.Loc.324.1>:
    596c:	21 52       	add	#4,	r1	;r2 As==10

0000596e <.LCFI10>:
    596e:	64 17       	popm	#7,	r10	;16-bit words

00005970 <.LCFI11>:
    5970:	30 41       	ret			

00005972 <.L38>:
    5972:	81 4d 02 00 	mov	r13,	2(r1)	;
    5976:	81 4e 00 00 	mov	r14,	0(r1)	;
    597a:	b0 12 b0 77 	call	#30640		;#0x77b0

0000597e <.LVL92>:
    597e:	1d 41 02 00 	mov	2(r1),	r13	;
    5982:	2e 41       	mov	@r1,	r14	;
    5984:	1c b3       	bit	#1,	r12	;r3 As==01
    5986:	27 20       	jnz	$+80     	;abs 0x59d6

00005988 <.Loc.310.1>:
    5988:	25 4a       	mov	@r10,	r5	;
    598a:	05 54       	add	r4,	r5	;

0000598c <.Loc.311.1>:
    598c:	2c 45       	mov	@r5,	r12	;

0000598e <.LVL94>:
    598e:	06 4d       	mov	r13,	r6	;

00005990 <.L40>:
    5990:	85 4e 00 00 	mov	r14,	0(r5)	;

00005994 <.Loc.317.1>:
    5994:	08 59       	add	r9,	r8	;
    5996:	58 06       	rlam	#2,	r8	;
    5998:	09 58       	add	r8,	r9	;
    599a:	59 02       	rlam	#1,	r9	;
    599c:	09 57       	add	r7,	r9	;

0000599e <.Loc.317.1>:
    599e:	1d 49 08 00 	mov	8(r9),	r13	;
    59a2:	8d 46 00 00 	mov	r6,	0(r13)	;

000059a6 <.Loc.318.1>:
    59a6:	1d 49 06 00 	mov	6(r9),	r13	;
    59aa:	8d 4c 00 00 	mov	r12,	0(r13)	;

000059ae <.Loc.319.1>:
    59ae:	1c 49 0c 00 	mov	12(r9),	r12	;0x0000c

000059b2 <.LVL97>:
    59b2:	8c 43 00 00 	mov	#0,	0(r12)	;r3 As==00

000059b6 <.LVL98>:
    59b6:	3c 40 04 58 	mov	#22532,	r12	;#0x5804

000059ba <.LBE52>:
    59ba:	21 52       	add	#4,	r1	;r2 As==10

000059bc <.LCFI13>:
    59bc:	64 17       	popm	#7,	r10	;16-bit words

000059be <.LCFI14>:
    59be:	30 41       	ret			

000059c0 <.L41>:
    59c0:	1c 4a 16 00 	mov	22(r10),r12	;0x00016
    59c4:	dc 43 00 00 	mov.b	#1,	0(r12)	;r3 As==01

000059c8 <.LVL100>:
    59c8:	8d 4e 00 00 	mov	r14,	0(r13)	;

000059cc <.LVL101>:
    59cc:	3c 40 96 58 	mov	#22678,	r12	;#0x5896

000059d0 <.Loc.324.1>:
    59d0:	21 52       	add	#4,	r1	;r2 As==10

000059d2 <.LCFI16>:
    59d2:	64 17       	popm	#7,	r10	;16-bit words

000059d4 <.LCFI17>:
    59d4:	30 41       	ret			

000059d6 <.L42>:
    59d6:	25 5a       	add	@r10,	r5	;

000059d8 <.Loc.306.1>:
    59d8:	2c 45       	mov	@r5,	r12	;

000059da <.LVL103>:
    59da:	da 3f       	jmp	$-74     	;abs 0x5990

000059dc <task_done>:
    59dc:	c2 93 60 45 	cmp.b	#0,	&0x4560	;r3 As==00
    59e0:	08 24       	jz	$+18     	;abs 0x59f2

000059e2 <.LBB56>:
    59e2:	f2 d0 10 00 	bis.b	#16,	&0x0222	;#0x0010
    59e6:	22 02 

000059e8 <.Loc.447.1>:
    59e8:	f2 f0 ef ff 	and.b	#-17,	&0x0222	;#0xffef
    59ec:	22 02 

000059ee <.Loc.448.1>:
    59ee:	c2 43 60 45 	mov.b	#0,	&0x4560	;r3 As==00

000059f2 <.L44>:
    59f2:	3c 40 be 55 	mov	#21950,	r12	;#0x55be
    59f6:	30 41       	ret			

000059f8 <__ink_create_thread_15>:
    59f8:	b0 12 4e 5b 	call	#23374		;#0x5b4e
    59fc:	4c 93       	cmp.b	#0,	r12	;r3 As==00
    59fe:	01 20       	jnz	$+4      	;abs 0x5a02

00005a00 <.Loc.163.1>:
    5a00:	30 41       	ret			

00005a02 <.L50>:
    5a02:	5e 43       	mov.b	#1,	r14	;r3 As==01
    5a04:	3d 40 be 55 	mov	#21950,	r13	;#0x55be
    5a08:	7c 40 0f 00 	mov.b	#15,	r12	;#0x000f
    5a0c:	b0 12 bc 5b 	call	#23484		;#0x5bbc

00005a10 <.Loc.163.1>:
    5a10:	30 41       	ret			

00005a12 <__ink_initialize_shared_vars_15>:
    5a12:	3c 40 2c 45 	mov	#17708,	r12	;#0x452c
    5a16:	bc 40 68 52 	mov	#21096,	0(r12)	;#0x5268
    5a1a:	00 00 

00005a1c <.Loc.456.1>:
    5a1c:	3d 40 16 01 	mov	#278,	r13	;#0x0116
    5a20:	3d 50 68 52 	add	#21096,	r13	;#0x5268
    5a24:	8c 4d 1a 00 	mov	r13,	26(r12)	; 0x001a

00005a28 <.Loc.456.1>:
    5a28:	bc 40 66 52 	mov	#21094,	2(r12)	;#0x5266
    5a2c:	02 00 

00005a2e <.Loc.457.1>:
    5a2e:	3d 40 16 01 	mov	#278,	r13	;#0x0116
    5a32:	3d 50 66 52 	add	#21094,	r13	;#0x5266
    5a36:	8c 4d 1c 00 	mov	r13,	28(r12)	; 0x001c

00005a3a <.Loc.457.1>:
    5a3a:	bc 40 64 52 	mov	#21092,	4(r12)	;#0x5264
    5a3e:	04 00 

00005a40 <.Loc.458.1>:
    5a40:	3d 40 16 01 	mov	#278,	r13	;#0x0116
    5a44:	3d 50 64 52 	add	#21092,	r13	;#0x5264
    5a48:	8c 4d 1e 00 	mov	r13,	30(r12)	; 0x001e

00005a4c <.Loc.458.1>:
    5a4c:	bc 40 62 52 	mov	#21090,	6(r12)	;#0x5262
    5a50:	06 00 

00005a52 <.Loc.459.1>:
    5a52:	3d 40 16 01 	mov	#278,	r13	;#0x0116
    5a56:	3d 50 62 52 	add	#21090,	r13	;#0x5262
    5a5a:	8c 4d 20 00 	mov	r13,	32(r12)	; 0x0020

00005a5e <.Loc.459.1>:
    5a5e:	bc 40 60 52 	mov	#21088,	8(r12)	;#0x5260
    5a62:	08 00 

00005a64 <.Loc.460.1>:
    5a64:	3d 40 16 01 	mov	#278,	r13	;#0x0116
    5a68:	3d 50 60 52 	add	#21088,	r13	;#0x5260
    5a6c:	8c 4d 22 00 	mov	r13,	34(r12)	; 0x0022

00005a70 <.Loc.460.1>:
    5a70:	bc 40 5e 52 	mov	#21086,	10(r12)	;#0x525e, 0x000a
    5a74:	0a 00 

00005a76 <.Loc.461.1>:
    5a76:	3d 40 16 01 	mov	#278,	r13	;#0x0116
    5a7a:	3d 50 5e 52 	add	#21086,	r13	;#0x525e
    5a7e:	8c 4d 24 00 	mov	r13,	36(r12)	; 0x0024

00005a82 <.Loc.461.1>:
    5a82:	bc 40 5c 52 	mov	#21084,	12(r12)	;#0x525c, 0x000c
    5a86:	0c 00 

00005a88 <.Loc.462.1>:
    5a88:	3d 40 16 01 	mov	#278,	r13	;#0x0116
    5a8c:	3d 50 5c 52 	add	#21084,	r13	;#0x525c
    5a90:	8c 4d 26 00 	mov	r13,	38(r12)	; 0x0026

00005a94 <.Loc.462.1>:
    5a94:	bc 40 5a 52 	mov	#21082,	14(r12)	;#0x525a, 0x000e
    5a98:	0e 00 

00005a9a <.Loc.463.1>:
    5a9a:	3d 40 16 01 	mov	#278,	r13	;#0x0116
    5a9e:	3d 50 5a 52 	add	#21082,	r13	;#0x525a
    5aa2:	8c 4d 28 00 	mov	r13,	40(r12)	; 0x0028

00005aa6 <.Loc.463.1>:
    5aa6:	bc 40 58 52 	mov	#21080,	16(r12)	;#0x5258, 0x0010
    5aaa:	10 00 

00005aac <.Loc.464.1>:
    5aac:	3d 40 16 01 	mov	#278,	r13	;#0x0116
    5ab0:	3d 50 58 52 	add	#21080,	r13	;#0x5258
    5ab4:	8c 4d 2a 00 	mov	r13,	42(r12)	; 0x002a

00005ab8 <.Loc.464.1>:
    5ab8:	bc 40 56 52 	mov	#21078,	18(r12)	;#0x5256, 0x0012
    5abc:	12 00 

00005abe <.Loc.465.1>:
    5abe:	3d 40 16 01 	mov	#278,	r13	;#0x0116
    5ac2:	3d 50 56 52 	add	#21078,	r13	;#0x5256
    5ac6:	8c 4d 2c 00 	mov	r13,	44(r12)	; 0x002c

00005aca <.Loc.465.1>:
    5aca:	bc 40 54 52 	mov	#21076,	20(r12)	;#0x5254, 0x0014
    5ace:	14 00 

00005ad0 <.Loc.466.1>:
    5ad0:	3d 40 16 01 	mov	#278,	r13	;#0x0116
    5ad4:	3d 50 54 52 	add	#21076,	r13	;#0x5254
    5ad8:	8c 4d 2e 00 	mov	r13,	46(r12)	; 0x002e

00005adc <.Loc.466.1>:
    5adc:	bc 40 53 52 	mov	#21075,	22(r12)	;#0x5253, 0x0016
    5ae0:	16 00 

00005ae2 <.Loc.467.1>:
    5ae2:	3d 40 16 01 	mov	#278,	r13	;#0x0116
    5ae6:	3d 50 53 52 	add	#21075,	r13	;#0x5253
    5aea:	8c 4d 30 00 	mov	r13,	48(r12)	; 0x0030

00005aee <.Loc.467.1>:
    5aee:	bc 40 52 52 	mov	#21074,	24(r12)	;#0x5252, 0x0018
    5af2:	18 00 

00005af4 <.Loc.468.1>:
    5af4:	3d 40 16 01 	mov	#278,	r13	;#0x0116
    5af8:	3d 50 52 52 	add	#21074,	r13	;#0x5252
    5afc:	8c 4d 32 00 	mov	r13,	50(r12)	; 0x0032

00005b00 <.Loc.468.1>:
    5b00:	30 41       	ret			

00005b02 <__ink_get_variable_address_with_offset>:
    5b02:	3c 50 16 01 	add	#278,	r12	;#0x0116

00005b06 <.LVL1>:
    5b06:	30 41       	ret			

00005b08 <__ink_get_current_task_buffer_index>:
    5b08:	5c 42 7e 51 	mov.b	&0x517e,r12	;0x517e
    5b0c:	30 41       	ret			

00005b0e <is_shared>:
    5b0e:	3c 90 52 52 	cmp	#21074,	r12	;#0x5252
    5b12:	06 28       	jnc	$+14     	;abs 0x5b20

00005b14 <.Loc.27.1>:
    5b14:	5d 43       	mov.b	#1,	r13	;r3 As==01
    5b16:	3c 90 68 53 	cmp	#21352,	r12	;#0x5368
    5b1a:	04 2c       	jc	$+10     	;abs 0x5b24
    5b1c:	4c 4d       	mov.b	r13,	r12	;

00005b1e <.L5>:
    5b1e:	30 41       	ret			

00005b20 <.L7>:
    5b20:	4c 43       	clr.b	r12		;

00005b22 <.LVL5>:
    5b22:	30 41       	ret			

00005b24 <.L8>:
    5b24:	4d 43       	clr.b	r13		;
    5b26:	4c 4d       	mov.b	r13,	r12	;

00005b28 <.LVL7>:
    5b28:	fa 3f       	jmp	$-10     	;abs 0x5b1e

00005b2a <__ink_translate_pointer_address>:
    5b2a:	0a 15       	pushm	#1,	r10	;16-bit words

00005b2c <.LCFI0>:
    5b2c:	0a 4c       	mov	r12,	r10	;

00005b2e <.LBB12>:
    5b2e:	3c 90 52 52 	cmp	#21074,	r12	;#0x5252
    5b32:	0a 28       	jnc	$+22     	;abs 0x5b48
    5b34:	3c 90 68 53 	cmp	#21352,	r12	;#0x5368
    5b38:	07 2c       	jc	$+16     	;abs 0x5b48

00005b3a <.LBB14>:
    5b3a:	5c 42 7e 51 	mov.b	&0x517e,r12	;0x517e

00005b3e <.LVL11>:
    5b3e:	3d 40 16 01 	mov	#278,	r13	;#0x0116

00005b42 <.LVL12>:
    5b42:	b0 12 2a 77 	call	#30506		;#0x772a

00005b46 <.LVL13>:
    5b46:	0a 5c       	add	r12,	r10	;

00005b48 <.L12>:
    5b48:	0c 4a       	mov	r10,	r12	;
    5b4a:	0a 17       	popm	#1,	r10	;16-bit words

00005b4c <.LCFI1>:
    5b4c:	30 41       	ret			

00005b4e <ink_is_first_boot>:
    5b4e:	
00005b50 <L0^A>:
    5b50:	62 45       	mov.b	@r5,	r2	;
    5b52:	30 41       	ret			

00005b54 <ink_is_initialized>:
    5b54:	5c 42 c8 1c 	mov.b	&0x1cc8,r12	;0x1cc8
    5b58:	30 41       	ret			

00005b5a <__ink_init>:
    5b5a:	b0 12 b4 63 	call	#25524		;#0x63b4

00005b5e <.LBB4>:
    5b5e:	c2 93 62 45 	cmp.b	#0,	&0x4562	;r3 As==00
    5b62:	22 20       	jnz	$+70     	;abs 0x5ba8

00005b64 <.L5>:
    5b64:	f2 c2 02 02 	bic.b	#8,	&0x0202	;r2 As==11

00005b68 <.Loc.50.1>:
    5b68:	f2 d2 04 02 	bis.b	#8,	&0x0204	;r2 As==11

00005b6c <.Loc.50.1>:
    5b6c:	f2 c2 02 02 	bic.b	#8,	&0x0202	;r2 As==11

00005b70 <.Loc.50.1>:
    5b70:	f2 f0 ef ff 	and.b	#-17,	&0x0202	;#0xffef
    5b74:	02 02 

00005b76 <.Loc.51.1>:
    5b76:	f2 d0 10 00 	bis.b	#16,	&0x0204	;#0x0010
    5b7a:	04 02 

00005b7c <.Loc.51.1>:
    5b7c:	f2 f0 ef ff 	and.b	#-17,	&0x0202	;#0xffef
    5b80:	02 02 

00005b82 <.Loc.51.1>:
    5b82:	f2 f0 df ff 	and.b	#-33,	&0x0222	;#0xffdf
    5b86:	22 02 

00005b88 <.Loc.52.1>:
    5b88:	f2 d0 20 00 	bis.b	#32,	&0x0224	;#0x0020
    5b8c:	24 02 

00005b8e <.Loc.52.1>:
    5b8e:	f2 f0 df ff 	and.b	#-33,	&0x0222	;#0xffdf
    5b92:	22 02 

00005b94 <.Loc.52.1>:
    5b94:	f2 f0 bf ff 	and.b	#-65,	&0x0222	;#0xffbf
    5b98:	22 02 

00005b9a <.Loc.53.1>:
    5b9a:	f2 d0 40 00 	bis.b	#64,	&0x0224	;#0x0040
    5b9e:	24 02 

00005ba0 <.Loc.53.1>:
    5ba0:	f2 f0 bf ff 	and.b	#-65,	&0x0222	;#0xffbf
    5ba4:	22 02 

00005ba6 <.Loc.53.1>:
    5ba6:	30 41       	ret			

00005ba8 <.L6>:
    5ba8:	b0 12 0c 64 	call	#25612		;#0x640c

00005bac <.Loc.36.1>:
    5bac:	b0 12 2e 61 	call	#24878		;#0x612e
    5bb0:	d9 3f       	jmp	$-76     	;abs 0x5b64

00005bb2 <__ink_init_done>:
    5bb2:	c2 43 62 45 	mov.b	#0,	&0x4562	;r3 As==00

00005bb6 <.Loc.69.1>:
    5bb6:	d2 43 c8 1c 	mov.b	#1,	&0x1cc8	;r3 As==01

00005bba <.Loc.70.1>:
    5bba:	30 41       	ret			

00005bbc <__ink_create_thread>:
    5bbc:	2a 15       	pushm	#3,	r10	;16-bit words

00005bbe <L0^A>:
    5bbe:	21 83       	decd	r1		;

00005bc0 <.LCFI1>:
    5bc0:	4a 4c       	mov.b	r12,	r10	;
    5bc2:	09 4d       	mov	r13,	r9	;
    5bc4:	48 4e       	mov.b	r14,	r8	;

00005bc6 <.Loc.147.1>:
    5bc6:	b0 12 4e 5b 	call	#23374		;#0x5b4e

00005bca <.LVL1>:
    5bca:	4c 93       	cmp.b	#0,	r12	;r3 As==00
    5bcc:	56 24       	jz	$+174    	;abs 0x5c7a

00005bce <.Loc.152.1>:
    5bce:	7c 40 3f 00 	mov.b	#63,	r12	;#0x003f
    5bd2:	4c 9a       	cmp.b	r10,	r12	;
    5bd4:	47 28       	jnc	$+144    	;abs 0x5c64
    5bd6:	0c 4a       	mov	r10,	r12	;
    5bd8:	5c 02       	rlam	#1,	r12	;
    5bda:	3c 50 e4 5b 	add	#23524,	r12	;#0x5be4
    5bde:	2c 4c       	mov	@r12,	r12	;
    5be0:	00 4c       	br	r12		;
	...

00005be4 <.L6>:
    5be4:	64 5c       	add.b	@r12,	r4	;
    5be6:	fc 60 e8 60 	addc.b	#24808,	24788(r12);#0x60e8, 0x60d4
    5bea:	d4 60 
    5bec:	c0 60 ac 60 	addc.b	r0,	0x60ac	; PC rel. 0xbc9a
    5bf0:	98 60 84 60 	addc	0x6084,	24688(r8);PC rel. 0xbc76, 0x6070
    5bf4:	70 60 
    5bf6:	5c 60 4a 60 	addc.b	0x604a,	r12	;PC rel. 0xbc42
    5bfa:	38 60 26 60 	addc	#24614,	r8	;#0x6026
    5bfe:	14 60 02 60 	addc	0x6002,	r4	;PC rel. 0xbc02
    5c02:	f0 5f de 5f 	add.b	@r15+,	0x5fde	; PC rel. 0xbbe2
    5c06:	cc 5f ba 5f 	add.b	r15,	24506(r12); 0x5fba
    5c0a:	a8 5f 96 5f 	add	@r15,	24470(r8); 0x5f96
    5c0e:	84 5f 72 5f 	add	r15,	24434(r4); 0x5f72
    5c12:	60 5f       	add.b	@r15,	r0	;
    5c14:	4e 5f       	add.b	r15,	r14	;
    5c16:	3c 5f       	add	@r15+,	r12	;
    5c18:	2a 5f       	add	@r15,	r10	;
    5c1a:	18 5f 06 5f 	add	24326(r15),r8	;0x05f06
    5c1e:	f4 5e e2 5e 	add.b	@r14+,	24290(r4); 0x5ee2
    5c22:	d0 5e be 5e 	add.b	24254(r14),0x5eac	;0x05ebe, PC rel. 0xbad2
    5c26:	ac 5e 
    5c28:	9a 5e 88 5e 	add	24200(r14),24182(r10);0x05e88, 0x5e76
    5c2c:	76 5e 
    5c2e:	64 5e       	add.b	@r14,	r4	;
    5c30:	52 5e 40 5e 	add.b	24128(r14),r2	;0x05e40
    5c34:	2e 5e       	add	@r14,	r14	;
    5c36:	1c 5e 0a 5e 	add	24074(r14),r12	;0x05e0a
    5c3a:	f8 5d e6 5d 	add.b	@r13+,	24038(r8); 0x5de6
    5c3e:	d4 5d c2 5d 	add.b	24002(r13),23984(r4);0x05dc2, 0x5db0
    5c42:	b0 5d 
    5c44:	9e 5d 8c 5d 	add	23948(r13),23930(r14);0x05d8c, 0x5d7a
    5c48:	7a 5d 
    5c4a:	68 5d       	add.b	@r13,	r8	;
    5c4c:	56 5d 44 5d 	add.b	23876(r13),r6	;0x05d44
    5c50:	32 5d       	add	@r13+,	r2	;
    5c52:	20 5d       	add	@r13,	r0	;
    5c54:	0e 5d       	add	r13,	r14	;
    5c56:	fc 5c ea 5c 	add.b	@r12+,	23786(r12); 0x5cea
    5c5a:	d8 5c c6 5c 	add.b	23750(r12),23732(r8);0x05cc6, 0x5cb4
    5c5e:	b4 5c 
    5c60:	a2 5c 90 5c 	add	@r12,	&0x5c90	;

00005c64 <.L70>:
    5c64:	4c 43       	clr.b	r12		;
    5c66:	4f 43       	clr.b	r15		;
    5c68:	4e 43       	clr.b	r14		;

00005c6a <.L4>:
    5c6a:	81 4c 00 00 	mov	r12,	0(r1)	;
    5c6e:	0d 49       	mov	r9,	r13	;
    5c70:	4c 4a       	mov.b	r10,	r12	;

00005c72 <.LVL4>:
    5c72:	b0 12 34 64 	call	#25652		;#0x6434

00005c76 <.LVL5>:
    5c76:	08 93       	cmp	#0,	r8	;r3 As==00
    5c78:	03 20       	jnz	$+8      	;abs 0x5c80

00005c7a <.L1>:
    5c7a:	21 53       	incd	r1		;

00005c7c <.LCFI2>:
    5c7c:	28 17       	popm	#3,	r10	;16-bit words

00005c7e <.LCFI3>:
    5c7e:	30 41       	ret			

00005c80 <.L75>:
    5c80:	4c 4a       	mov.b	r10,	r12	;
    5c82:	b0 12 d8 64 	call	#25816		;#0x64d8
    5c86:	b0 12 bc 64 	call	#25788		;#0x64bc

00005c8a <.Loc.232.1>:
    5c8a:	21 53       	incd	r1		;

00005c8c <.LCFI5>:
    5c8c:	28 17       	popm	#3,	r10	;16-bit words

00005c8e <.LCFI6>:
    5c8e:	30 41       	ret			

00005c90 <.L5>:
    5c90:	3f 40 68 53 	mov	#21352,	r15	;#0x5368
    5c94:	3f 50 16 01 	add	#278,	r15	;#0x0116

00005c98 <.LVL9>:
    5c98:	3c 40 00 00 	mov	#0,	r12	;

00005c9c <.Loc.220.1>:
    5c9c:	3e 40 68 53 	mov	#21352,	r14	;#0x5368
    5ca0:	e4 3f       	jmp	$-54     	;abs 0x5c6a

00005ca2 <.L7>:
    5ca2:	3f 40 68 53 	mov	#21352,	r15	;#0x5368
    5ca6:	3f 50 16 01 	add	#278,	r15	;#0x0116

00005caa <.LVL12>:
    5caa:	3c 40 00 00 	mov	#0,	r12	;

00005cae <.Loc.219.1>:
    5cae:	3e 40 68 53 	mov	#21352,	r14	;#0x5368
    5cb2:	db 3f       	jmp	$-72     	;abs 0x5c6a

00005cb4 <.L8>:
    5cb4:	3f 40 68 53 	mov	#21352,	r15	;#0x5368
    5cb8:	3f 50 16 01 	add	#278,	r15	;#0x0116

00005cbc <.LVL15>:
    5cbc:	3c 40 00 00 	mov	#0,	r12	;

00005cc0 <.Loc.218.1>:
    5cc0:	3e 40 68 53 	mov	#21352,	r14	;#0x5368
    5cc4:	d2 3f       	jmp	$-90     	;abs 0x5c6a

00005cc6 <.L9>:
    5cc6:	3f 40 68 53 	mov	#21352,	r15	;#0x5368
    5cca:	3f 50 16 01 	add	#278,	r15	;#0x0116

00005cce <.LVL18>:
    5cce:	3c 40 00 00 	mov	#0,	r12	;

00005cd2 <.Loc.217.1>:
    5cd2:	3e 40 68 53 	mov	#21352,	r14	;#0x5368
    5cd6:	c9 3f       	jmp	$-108    	;abs 0x5c6a

00005cd8 <.L10>:
    5cd8:	3f 40 68 53 	mov	#21352,	r15	;#0x5368
    5cdc:	3f 50 16 01 	add	#278,	r15	;#0x0116

00005ce0 <.LVL21>:
    5ce0:	3c 40 00 00 	mov	#0,	r12	;

00005ce4 <.Loc.216.1>:
    5ce4:	3e 40 68 53 	mov	#21352,	r14	;#0x5368
    5ce8:	c0 3f       	jmp	$-126    	;abs 0x5c6a

00005cea <.L11>:
    5cea:	3f 40 68 53 	mov	#21352,	r15	;#0x5368
    5cee:	3f 50 16 01 	add	#278,	r15	;#0x0116

00005cf2 <.LVL24>:
    5cf2:	3c 40 00 00 	mov	#0,	r12	;

00005cf6 <.Loc.215.1>:
    5cf6:	3e 40 68 53 	mov	#21352,	r14	;#0x5368
    5cfa:	b7 3f       	jmp	$-144    	;abs 0x5c6a

00005cfc <.L12>:
    5cfc:	3f 40 68 53 	mov	#21352,	r15	;#0x5368
    5d00:	3f 50 16 01 	add	#278,	r15	;#0x0116

00005d04 <.LVL27>:
    5d04:	3c 40 00 00 	mov	#0,	r12	;

00005d08 <.Loc.214.1>:
    5d08:	3e 40 68 53 	mov	#21352,	r14	;#0x5368
    5d0c:	ae 3f       	jmp	$-162    	;abs 0x5c6a

00005d0e <.L13>:
    5d0e:	3f 40 68 53 	mov	#21352,	r15	;#0x5368
    5d12:	3f 50 16 01 	add	#278,	r15	;#0x0116

00005d16 <.LVL30>:
    5d16:	3c 40 00 00 	mov	#0,	r12	;

00005d1a <.Loc.213.1>:
    5d1a:	3e 40 68 53 	mov	#21352,	r14	;#0x5368
    5d1e:	a5 3f       	jmp	$-180    	;abs 0x5c6a

00005d20 <.L14>:
    5d20:	3f 40 68 53 	mov	#21352,	r15	;#0x5368
    5d24:	3f 50 16 01 	add	#278,	r15	;#0x0116

00005d28 <.LVL33>:
    5d28:	3c 40 00 00 	mov	#0,	r12	;

00005d2c <.Loc.212.1>:
    5d2c:	3e 40 68 53 	mov	#21352,	r14	;#0x5368
    5d30:	9c 3f       	jmp	$-198    	;abs 0x5c6a

00005d32 <.L15>:
    5d32:	3f 40 68 53 	mov	#21352,	r15	;#0x5368
    5d36:	3f 50 16 01 	add	#278,	r15	;#0x0116

00005d3a <.LVL36>:
    5d3a:	3c 40 00 00 	mov	#0,	r12	;

00005d3e <.Loc.211.1>:
    5d3e:	3e 40 68 53 	mov	#21352,	r14	;#0x5368
    5d42:	93 3f       	jmp	$-216    	;abs 0x5c6a

00005d44 <.L16>:
    5d44:	3f 40 68 53 	mov	#21352,	r15	;#0x5368
    5d48:	3f 50 16 01 	add	#278,	r15	;#0x0116

00005d4c <.LVL39>:
    5d4c:	3c 40 00 00 	mov	#0,	r12	;

00005d50 <.Loc.210.1>:
    5d50:	3e 40 68 53 	mov	#21352,	r14	;#0x5368
    5d54:	8a 3f       	jmp	$-234    	;abs 0x5c6a

00005d56 <.L17>:
    5d56:	3f 40 68 53 	mov	#21352,	r15	;#0x5368
    5d5a:	3f 50 16 01 	add	#278,	r15	;#0x0116

00005d5e <.LVL42>:
    5d5e:	3c 40 00 00 	mov	#0,	r12	;

00005d62 <.Loc.209.1>:
    5d62:	3e 40 68 53 	mov	#21352,	r14	;#0x5368
    5d66:	81 3f       	jmp	$-252    	;abs 0x5c6a

00005d68 <.L18>:
    5d68:	3f 40 68 53 	mov	#21352,	r15	;#0x5368
    5d6c:	3f 50 16 01 	add	#278,	r15	;#0x0116

00005d70 <.LVL45>:
    5d70:	3c 40 00 00 	mov	#0,	r12	;

00005d74 <.Loc.208.1>:
    5d74:	3e 40 68 53 	mov	#21352,	r14	;#0x5368
    5d78:	78 3f       	jmp	$-270    	;abs 0x5c6a

00005d7a <.L19>:
    5d7a:	3f 40 68 53 	mov	#21352,	r15	;#0x5368
    5d7e:	3f 50 16 01 	add	#278,	r15	;#0x0116

00005d82 <.LVL48>:
    5d82:	3c 40 00 00 	mov	#0,	r12	;

00005d86 <.Loc.207.1>:
    5d86:	3e 40 68 53 	mov	#21352,	r14	;#0x5368
    5d8a:	6f 3f       	jmp	$-288    	;abs 0x5c6a

00005d8c <.L20>:
    5d8c:	3f 40 68 53 	mov	#21352,	r15	;#0x5368
    5d90:	3f 50 16 01 	add	#278,	r15	;#0x0116

00005d94 <.LVL51>:
    5d94:	3c 40 00 00 	mov	#0,	r12	;

00005d98 <.Loc.206.1>:
    5d98:	3e 40 68 53 	mov	#21352,	r14	;#0x5368
    5d9c:	66 3f       	jmp	$-306    	;abs 0x5c6a

00005d9e <.L21>:
    5d9e:	3f 40 68 53 	mov	#21352,	r15	;#0x5368
    5da2:	3f 50 16 01 	add	#278,	r15	;#0x0116

00005da6 <.LVL54>:
    5da6:	3c 40 00 00 	mov	#0,	r12	;

00005daa <.Loc.205.1>:
    5daa:	3e 40 68 53 	mov	#21352,	r14	;#0x5368
    5dae:	5d 3f       	jmp	$-324    	;abs 0x5c6a

00005db0 <.L22>:
    5db0:	3f 40 68 53 	mov	#21352,	r15	;#0x5368
    5db4:	3f 50 16 01 	add	#278,	r15	;#0x0116

00005db8 <.LVL57>:
    5db8:	3c 40 00 00 	mov	#0,	r12	;

00005dbc <.Loc.204.1>:
    5dbc:	3e 40 68 53 	mov	#21352,	r14	;#0x5368
    5dc0:	54 3f       	jmp	$-342    	;abs 0x5c6a

00005dc2 <.L23>:
    5dc2:	3f 40 68 53 	mov	#21352,	r15	;#0x5368
    5dc6:	3f 50 16 01 	add	#278,	r15	;#0x0116

00005dca <.LVL60>:
    5dca:	3c 40 00 00 	mov	#0,	r12	;

00005dce <.Loc.203.1>:
    5dce:	3e 40 68 53 	mov	#21352,	r14	;#0x5368
    5dd2:	4b 3f       	jmp	$-360    	;abs 0x5c6a

00005dd4 <.L24>:
    5dd4:	3f 40 68 53 	mov	#21352,	r15	;#0x5368
    5dd8:	3f 50 16 01 	add	#278,	r15	;#0x0116

00005ddc <.LVL63>:
    5ddc:	3c 40 00 00 	mov	#0,	r12	;

00005de0 <.Loc.202.1>:
    5de0:	3e 40 68 53 	mov	#21352,	r14	;#0x5368
    5de4:	42 3f       	jmp	$-378    	;abs 0x5c6a

00005de6 <.L25>:
    5de6:	3f 40 68 53 	mov	#21352,	r15	;#0x5368
    5dea:	3f 50 16 01 	add	#278,	r15	;#0x0116

00005dee <.LVL66>:
    5dee:	3c 40 00 00 	mov	#0,	r12	;

00005df2 <.Loc.201.1>:
    5df2:	3e 40 68 53 	mov	#21352,	r14	;#0x5368
    5df6:	39 3f       	jmp	$-396    	;abs 0x5c6a

00005df8 <.L26>:
    5df8:	3f 40 68 53 	mov	#21352,	r15	;#0x5368
    5dfc:	3f 50 16 01 	add	#278,	r15	;#0x0116

00005e00 <.LVL69>:
    5e00:	3c 40 00 00 	mov	#0,	r12	;

00005e04 <.Loc.200.1>:
    5e04:	3e 40 68 53 	mov	#21352,	r14	;#0x5368
    5e08:	30 3f       	jmp	$-414    	;abs 0x5c6a

00005e0a <.L27>:
    5e0a:	3f 40 68 53 	mov	#21352,	r15	;#0x5368
    5e0e:	3f 50 16 01 	add	#278,	r15	;#0x0116

00005e12 <.LVL72>:
    5e12:	3c 40 00 00 	mov	#0,	r12	;

00005e16 <.Loc.199.1>:
    5e16:	3e 40 68 53 	mov	#21352,	r14	;#0x5368
    5e1a:	27 3f       	jmp	$-432    	;abs 0x5c6a

00005e1c <.L28>:
    5e1c:	3f 40 68 53 	mov	#21352,	r15	;#0x5368
    5e20:	3f 50 16 01 	add	#278,	r15	;#0x0116

00005e24 <.LVL75>:
    5e24:	3c 40 00 00 	mov	#0,	r12	;

00005e28 <.Loc.198.1>:
    5e28:	3e 40 68 53 	mov	#21352,	r14	;#0x5368
    5e2c:	1e 3f       	jmp	$-450    	;abs 0x5c6a

00005e2e <.L29>:
    5e2e:	3f 40 68 53 	mov	#21352,	r15	;#0x5368
    5e32:	3f 50 16 01 	add	#278,	r15	;#0x0116

00005e36 <.LVL78>:
    5e36:	3c 40 00 00 	mov	#0,	r12	;

00005e3a <.Loc.197.1>:
    5e3a:	3e 40 68 53 	mov	#21352,	r14	;#0x5368
    5e3e:	15 3f       	jmp	$-468    	;abs 0x5c6a

00005e40 <.L30>:
    5e40:	3f 40 68 53 	mov	#21352,	r15	;#0x5368
    5e44:	3f 50 16 01 	add	#278,	r15	;#0x0116

00005e48 <.LVL81>:
    5e48:	3c 40 00 00 	mov	#0,	r12	;

00005e4c <.Loc.196.1>:
    5e4c:	3e 40 68 53 	mov	#21352,	r14	;#0x5368
    5e50:	0c 3f       	jmp	$-486    	;abs 0x5c6a

00005e52 <.L31>:
    5e52:	3f 40 68 53 	mov	#21352,	r15	;#0x5368
    5e56:	3f 50 16 01 	add	#278,	r15	;#0x0116

00005e5a <.LVL84>:
    5e5a:	3c 40 00 00 	mov	#0,	r12	;

00005e5e <.Loc.195.1>:
    5e5e:	3e 40 68 53 	mov	#21352,	r14	;#0x5368
    5e62:	03 3f       	jmp	$-504    	;abs 0x5c6a

00005e64 <.L32>:
    5e64:	3f 40 68 53 	mov	#21352,	r15	;#0x5368
    5e68:	3f 50 16 01 	add	#278,	r15	;#0x0116

00005e6c <.LVL87>:
    5e6c:	3c 40 00 00 	mov	#0,	r12	;

00005e70 <.Loc.194.1>:
    5e70:	3e 40 68 53 	mov	#21352,	r14	;#0x5368
    5e74:	fa 3e       	jmp	$-522    	;abs 0x5c6a

00005e76 <.L33>:
    5e76:	3f 40 68 53 	mov	#21352,	r15	;#0x5368
    5e7a:	3f 50 16 01 	add	#278,	r15	;#0x0116

00005e7e <.LVL90>:
    5e7e:	3c 40 00 00 	mov	#0,	r12	;

00005e82 <.Loc.193.1>:
    5e82:	3e 40 68 53 	mov	#21352,	r14	;#0x5368
    5e86:	f1 3e       	jmp	$-540    	;abs 0x5c6a

00005e88 <.L34>:
    5e88:	3f 40 68 53 	mov	#21352,	r15	;#0x5368
    5e8c:	3f 50 16 01 	add	#278,	r15	;#0x0116

00005e90 <.LVL93>:
    5e90:	3c 40 00 00 	mov	#0,	r12	;

00005e94 <.Loc.192.1>:
    5e94:	3e 40 68 53 	mov	#21352,	r14	;#0x5368
    5e98:	e8 3e       	jmp	$-558    	;abs 0x5c6a

00005e9a <.L35>:
    5e9a:	3f 40 68 53 	mov	#21352,	r15	;#0x5368
    5e9e:	3f 50 16 01 	add	#278,	r15	;#0x0116

00005ea2 <.LVL96>:
    5ea2:	3c 40 00 00 	mov	#0,	r12	;

00005ea6 <.Loc.191.1>:
    5ea6:	3e 40 68 53 	mov	#21352,	r14	;#0x5368
    5eaa:	df 3e       	jmp	$-576    	;abs 0x5c6a

00005eac <.L36>:
    5eac:	3f 40 68 53 	mov	#21352,	r15	;#0x5368
    5eb0:	3f 50 16 01 	add	#278,	r15	;#0x0116

00005eb4 <.LVL99>:
    5eb4:	3c 40 00 00 	mov	#0,	r12	;

00005eb8 <.Loc.190.1>:
    5eb8:	3e 40 68 53 	mov	#21352,	r14	;#0x5368
    5ebc:	d6 3e       	jmp	$-594    	;abs 0x5c6a

00005ebe <.L37>:
    5ebe:	3f 40 68 53 	mov	#21352,	r15	;#0x5368
    5ec2:	3f 50 16 01 	add	#278,	r15	;#0x0116

00005ec6 <.LVL102>:
    5ec6:	3c 40 00 00 	mov	#0,	r12	;

00005eca <.Loc.189.1>:
    5eca:	3e 40 68 53 	mov	#21352,	r14	;#0x5368
    5ece:	cd 3e       	jmp	$-612    	;abs 0x5c6a

00005ed0 <.L38>:
    5ed0:	3f 40 68 53 	mov	#21352,	r15	;#0x5368
    5ed4:	3f 50 16 01 	add	#278,	r15	;#0x0116

00005ed8 <.LVL105>:
    5ed8:	3c 40 00 00 	mov	#0,	r12	;

00005edc <.Loc.188.1>:
    5edc:	3e 40 68 53 	mov	#21352,	r14	;#0x5368
    5ee0:	c4 3e       	jmp	$-630    	;abs 0x5c6a

00005ee2 <.L39>:
    5ee2:	3f 40 68 53 	mov	#21352,	r15	;#0x5368
    5ee6:	3f 50 16 01 	add	#278,	r15	;#0x0116

00005eea <.LVL108>:
    5eea:	3c 40 00 00 	mov	#0,	r12	;

00005eee <.Loc.187.1>:
    5eee:	3e 40 68 53 	mov	#21352,	r14	;#0x5368
    5ef2:	bb 3e       	jmp	$-648    	;abs 0x5c6a

00005ef4 <.L40>:
    5ef4:	3f 40 68 53 	mov	#21352,	r15	;#0x5368
    5ef8:	3f 50 16 01 	add	#278,	r15	;#0x0116

00005efc <.LVL111>:
    5efc:	3c 40 00 00 	mov	#0,	r12	;

00005f00 <.Loc.186.1>:
    5f00:	3e 40 68 53 	mov	#21352,	r14	;#0x5368
    5f04:	b2 3e       	jmp	$-666    	;abs 0x5c6a

00005f06 <.L41>:
    5f06:	3f 40 68 53 	mov	#21352,	r15	;#0x5368
    5f0a:	3f 50 16 01 	add	#278,	r15	;#0x0116

00005f0e <.LVL114>:
    5f0e:	3c 40 00 00 	mov	#0,	r12	;

00005f12 <.Loc.185.1>:
    5f12:	3e 40 68 53 	mov	#21352,	r14	;#0x5368
    5f16:	a9 3e       	jmp	$-684    	;abs 0x5c6a

00005f18 <.L42>:
    5f18:	3f 40 68 53 	mov	#21352,	r15	;#0x5368
    5f1c:	3f 50 16 01 	add	#278,	r15	;#0x0116

00005f20 <.LVL117>:
    5f20:	3c 40 00 00 	mov	#0,	r12	;

00005f24 <.Loc.184.1>:
    5f24:	3e 40 68 53 	mov	#21352,	r14	;#0x5368
    5f28:	a0 3e       	jmp	$-702    	;abs 0x5c6a

00005f2a <.L43>:
    5f2a:	3f 40 68 53 	mov	#21352,	r15	;#0x5368
    5f2e:	3f 50 16 01 	add	#278,	r15	;#0x0116

00005f32 <.LVL120>:
    5f32:	3c 40 00 00 	mov	#0,	r12	;

00005f36 <.Loc.183.1>:
    5f36:	3e 40 68 53 	mov	#21352,	r14	;#0x5368
    5f3a:	97 3e       	jmp	$-720    	;abs 0x5c6a

00005f3c <.L44>:
    5f3c:	3f 40 68 53 	mov	#21352,	r15	;#0x5368
    5f40:	3f 50 16 01 	add	#278,	r15	;#0x0116

00005f44 <.LVL123>:
    5f44:	3c 40 00 00 	mov	#0,	r12	;

00005f48 <.Loc.182.1>:
    5f48:	3e 40 68 53 	mov	#21352,	r14	;#0x5368
    5f4c:	8e 3e       	jmp	$-738    	;abs 0x5c6a

00005f4e <.L45>:
    5f4e:	3f 40 68 53 	mov	#21352,	r15	;#0x5368
    5f52:	3f 50 16 01 	add	#278,	r15	;#0x0116

00005f56 <.LVL126>:
    5f56:	3c 40 00 00 	mov	#0,	r12	;

00005f5a <.Loc.181.1>:
    5f5a:	3e 40 68 53 	mov	#21352,	r14	;#0x5368
    5f5e:	85 3e       	jmp	$-756    	;abs 0x5c6a

00005f60 <.L46>:
    5f60:	3f 40 68 53 	mov	#21352,	r15	;#0x5368
    5f64:	3f 50 16 01 	add	#278,	r15	;#0x0116

00005f68 <.LVL129>:
    5f68:	3c 40 00 00 	mov	#0,	r12	;

00005f6c <.Loc.180.1>:
    5f6c:	3e 40 68 53 	mov	#21352,	r14	;#0x5368
    5f70:	7c 3e       	jmp	$-774    	;abs 0x5c6a

00005f72 <.L47>:
    5f72:	3f 40 68 53 	mov	#21352,	r15	;#0x5368
    5f76:	3f 50 16 01 	add	#278,	r15	;#0x0116

00005f7a <.LVL132>:
    5f7a:	3c 40 00 00 	mov	#0,	r12	;

00005f7e <.Loc.179.1>:
    5f7e:	3e 40 68 53 	mov	#21352,	r14	;#0x5368
    5f82:	73 3e       	jmp	$-792    	;abs 0x5c6a

00005f84 <.L48>:
    5f84:	3f 40 68 53 	mov	#21352,	r15	;#0x5368
    5f88:	3f 50 16 01 	add	#278,	r15	;#0x0116

00005f8c <.LVL135>:
    5f8c:	3c 40 00 00 	mov	#0,	r12	;

00005f90 <.Loc.178.1>:
    5f90:	3e 40 68 53 	mov	#21352,	r14	;#0x5368
    5f94:	6a 3e       	jmp	$-810    	;abs 0x5c6a

00005f96 <.L49>:
    5f96:	3f 40 68 53 	mov	#21352,	r15	;#0x5368
    5f9a:	3f 50 16 01 	add	#278,	r15	;#0x0116

00005f9e <.LVL138>:
    5f9e:	3c 40 00 00 	mov	#0,	r12	;

00005fa2 <.Loc.177.1>:
    5fa2:	3e 40 68 53 	mov	#21352,	r14	;#0x5368
    5fa6:	61 3e       	jmp	$-828    	;abs 0x5c6a

00005fa8 <.L50>:
    5fa8:	3f 40 68 53 	mov	#21352,	r15	;#0x5368
    5fac:	3f 50 16 01 	add	#278,	r15	;#0x0116

00005fb0 <.LVL141>:
    5fb0:	3c 40 00 00 	mov	#0,	r12	;

00005fb4 <.Loc.176.1>:
    5fb4:	3e 40 68 53 	mov	#21352,	r14	;#0x5368
    5fb8:	58 3e       	jmp	$-846    	;abs 0x5c6a

00005fba <.L51>:
    5fba:	3f 40 68 53 	mov	#21352,	r15	;#0x5368
    5fbe:	3f 50 16 01 	add	#278,	r15	;#0x0116

00005fc2 <.LVL144>:
    5fc2:	3c 40 00 00 	mov	#0,	r12	;

00005fc6 <.Loc.175.1>:
    5fc6:	3e 40 68 53 	mov	#21352,	r14	;#0x5368
    5fca:	4f 3e       	jmp	$-864    	;abs 0x5c6a

00005fcc <.L52>:
    5fcc:	3f 40 68 53 	mov	#21352,	r15	;#0x5368
    5fd0:	3f 50 16 01 	add	#278,	r15	;#0x0116

00005fd4 <.LVL147>:
    5fd4:	3c 40 00 00 	mov	#0,	r12	;

00005fd8 <.Loc.174.1>:
    5fd8:	3e 40 68 53 	mov	#21352,	r14	;#0x5368
    5fdc:	46 3e       	jmp	$-882    	;abs 0x5c6a

00005fde <.L53>:
    5fde:	3f 40 68 53 	mov	#21352,	r15	;#0x5368
    5fe2:	3f 50 16 01 	add	#278,	r15	;#0x0116

00005fe6 <.LVL150>:
    5fe6:	3c 40 00 00 	mov	#0,	r12	;

00005fea <.Loc.173.1>:
    5fea:	3e 40 68 53 	mov	#21352,	r14	;#0x5368
    5fee:	3d 3e       	jmp	$-900    	;abs 0x5c6a

00005ff0 <.L54>:
    5ff0:	3f 40 52 52 	mov	#21074,	r15	;#0x5252
    5ff4:	3f 50 16 01 	add	#278,	r15	;#0x0116

00005ff8 <.LVL153>:
    5ff8:	3c 40 16 01 	mov	#278,	r12	;#0x0116

00005ffc <.Loc.172.1>:
    5ffc:	3e 40 52 52 	mov	#21074,	r14	;#0x5252
    6000:	34 3e       	jmp	$-918    	;abs 0x5c6a

00006002 <.L55>:
    6002:	3f 40 52 52 	mov	#21074,	r15	;#0x5252
    6006:	3f 50 16 01 	add	#278,	r15	;#0x0116

0000600a <.LVL156>:
    600a:	3c 40 00 00 	mov	#0,	r12	;

0000600e <.Loc.171.1>:
    600e:	3e 40 52 52 	mov	#21074,	r14	;#0x5252
    6012:	2b 3e       	jmp	$-936    	;abs 0x5c6a

00006014 <.L56>:
    6014:	3f 40 52 52 	mov	#21074,	r15	;#0x5252
    6018:	3f 50 16 01 	add	#278,	r15	;#0x0116

0000601c <.LVL159>:
    601c:	3c 40 00 00 	mov	#0,	r12	;

00006020 <.Loc.170.1>:
    6020:	3e 40 52 52 	mov	#21074,	r14	;#0x5252
    6024:	22 3e       	jmp	$-954    	;abs 0x5c6a

00006026 <.L57>:
    6026:	3f 40 52 52 	mov	#21074,	r15	;#0x5252
    602a:	3f 50 16 01 	add	#278,	r15	;#0x0116

0000602e <.LVL162>:
    602e:	3c 40 00 00 	mov	#0,	r12	;

00006032 <.Loc.169.1>:
    6032:	3e 40 52 52 	mov	#21074,	r14	;#0x5252
    6036:	19 3e       	jmp	$-972    	;abs 0x5c6a

00006038 <.L58>:
    6038:	3f 40 52 52 	mov	#21074,	r15	;#0x5252
    603c:	3f 50 16 01 	add	#278,	r15	;#0x0116

00006040 <.LVL165>:
    6040:	3c 40 00 00 	mov	#0,	r12	;

00006044 <.Loc.168.1>:
    6044:	3e 40 52 52 	mov	#21074,	r14	;#0x5252
    6048:	10 3e       	jmp	$-990    	;abs 0x5c6a

0000604a <.L59>:
    604a:	3f 40 52 52 	mov	#21074,	r15	;#0x5252
    604e:	3f 50 16 01 	add	#278,	r15	;#0x0116

00006052 <.LVL168>:
    6052:	3c 40 00 00 	mov	#0,	r12	;

00006056 <.Loc.167.1>:
    6056:	3e 40 52 52 	mov	#21074,	r14	;#0x5252
    605a:	07 3e       	jmp	$-1008   	;abs 0x5c6a

0000605c <.L60>:
    605c:	3f 40 52 52 	mov	#21074,	r15	;#0x5252
    6060:	3f 50 16 01 	add	#278,	r15	;#0x0116

00006064 <.LVL171>:
    6064:	3c 40 00 00 	mov	#0,	r12	;

00006068 <.Loc.166.1>:
    6068:	3e 40 52 52 	mov	#21074,	r14	;#0x5252
    606c:	30 40 6a 5c 	br	#0x5c6a		;

00006070 <.L61>:
    6070:	3f 40 52 52 	mov	#21074,	r15	;#0x5252
    6074:	3f 50 16 01 	add	#278,	r15	;#0x0116

00006078 <.LVL174>:
    6078:	3c 40 00 00 	mov	#0,	r12	;

0000607c <.Loc.165.1>:
    607c:	3e 40 52 52 	mov	#21074,	r14	;#0x5252
    6080:	30 40 6a 5c 	br	#0x5c6a		;

00006084 <.L62>:
    6084:	3f 40 52 52 	mov	#21074,	r15	;#0x5252
    6088:	3f 50 16 01 	add	#278,	r15	;#0x0116

0000608c <.LVL177>:
    608c:	3c 40 00 00 	mov	#0,	r12	;

00006090 <.Loc.164.1>:
    6090:	3e 40 52 52 	mov	#21074,	r14	;#0x5252
    6094:	30 40 6a 5c 	br	#0x5c6a		;

00006098 <.L63>:
    6098:	3f 40 52 52 	mov	#21074,	r15	;#0x5252
    609c:	3f 50 16 01 	add	#278,	r15	;#0x0116

000060a0 <.LVL180>:
    60a0:	3c 40 00 00 	mov	#0,	r12	;

000060a4 <.Loc.163.1>:
    60a4:	3e 40 52 52 	mov	#21074,	r14	;#0x5252
    60a8:	30 40 6a 5c 	br	#0x5c6a		;

000060ac <.L64>:
    60ac:	3f 40 52 52 	mov	#21074,	r15	;#0x5252
    60b0:	3f 50 16 01 	add	#278,	r15	;#0x0116

000060b4 <.LVL183>:
    60b4:	3c 40 00 00 	mov	#0,	r12	;

000060b8 <.Loc.162.1>:
    60b8:	3e 40 52 52 	mov	#21074,	r14	;#0x5252
    60bc:	30 40 6a 5c 	br	#0x5c6a		;

000060c0 <.L65>:
    60c0:	3f 40 52 52 	mov	#21074,	r15	;#0x5252
    60c4:	3f 50 16 01 	add	#278,	r15	;#0x0116

000060c8 <.LVL186>:
    60c8:	3c 40 00 00 	mov	#0,	r12	;

000060cc <.Loc.161.1>:
    60cc:	3e 40 52 52 	mov	#21074,	r14	;#0x5252
    60d0:	30 40 6a 5c 	br	#0x5c6a		;

000060d4 <.L66>:
    60d4:	3f 40 52 52 	mov	#21074,	r15	;#0x5252
    60d8:	3f 50 16 01 	add	#278,	r15	;#0x0116

000060dc <.LVL189>:
    60dc:	3c 40 00 00 	mov	#0,	r12	;

000060e0 <.Loc.160.1>:
    60e0:	3e 40 52 52 	mov	#21074,	r14	;#0x5252
    60e4:	30 40 6a 5c 	br	#0x5c6a		;

000060e8 <.L67>:
    60e8:	3f 40 52 52 	mov	#21074,	r15	;#0x5252
    60ec:	3f 50 16 01 	add	#278,	r15	;#0x0116

000060f0 <.LVL192>:
    60f0:	3c 40 00 00 	mov	#0,	r12	;

000060f4 <.Loc.159.1>:
    60f4:	3e 40 52 52 	mov	#21074,	r14	;#0x5252
    60f8:	30 40 6a 5c 	br	#0x5c6a		;

000060fc <.L68>:
    60fc:	3f 40 52 52 	mov	#21074,	r15	;#0x5252
    6100:	3f 50 16 01 	add	#278,	r15	;#0x0116

00006104 <.LVL195>:
    6104:	3c 40 00 00 	mov	#0,	r12	;

00006108 <.Loc.158.1>:
    6108:	3e 40 52 52 	mov	#21074,	r14	;#0x5252
    610c:	30 40 6a 5c 	br	#0x5c6a		;

00006110 <ink_activate_thread>:
    6110:	3c f0 ff 00 	and	#255,	r12	;#0x00ff

00006114 <.Loc.236.1>:
    6114:	32 c2       	dint			
    6116:	03 43       	nop			

00006118 <.Loc.236.1>:
    6118:	b0 12 d8 64 	call	#25816		;#0x64d8

0000611c <.LVL198>:
    611c:	b0 12 bc 64 	call	#25788		;#0x64bc

00006120 <.Loc.236.1>:
    6120:	03 43       	nop			
    6122:	32 d2       	eint			
    6124:	03 43       	nop			

00006126 <.Loc.237.1>:
    6126:	30 41       	ret			

00006128 <ink_scheduler_run>:
    6128:	b0 12 ee 64 	call	#25838		;#0x64ee

0000612c <.Loc.7.1>:
    612c:	30 41       	ret			

0000612e <__events_boot_init>:
    612e:	1a 15       	pushm	#2,	r10	;16-bit words

00006130 <.LCFI0>:
    6130:	3a 40 e4 4a 	mov	#19172,	r10	;#0x4ae4
    6134:	39 40 e4 45 	mov	#17892,	r9	;#0x45e4

00006138 <.L2>:
    6138:	0c 4a       	mov	r10,	r12	;
    613a:	b0 12 e0 62 	call	#25312		;#0x62e0

0000613e <.Loc.27.1>:
    613e:	89 43 00 00 	mov	#0,	0(r9)	;r3 As==00

00006142 <.Loc.24.1>:
    6142:	3a 50 ec ff 	add	#-20,	r10	;#0xffec
    6146:	39 50 fe ff 	add	#-2,	r9	;#0xfffe

0000614a <.Loc.24.1>:
    614a:	3a 90 e4 45 	cmp	#17892,	r10	;#0x45e4
    614e:	f4 23       	jnz	$-22     	;abs 0x6138

00006150 <.Loc.29.1>:
    6150:	19 17       	popm	#2,	r10	;16-bit words

00006152 <.LCFI1>:
    6152:	30 41       	ret			

00006154 <__events_commit>:
    6154:	5c 42 f0 4a 	mov.b	&0x4af0,r12	;0x4af0
    6158:	5c 93       	cmp.b	#1,	r12	;r3 As==01
    615a:	14 24       	jz	$+42     	;abs 0x6184
    615c:	6c 93       	cmp.b	#2,	r12	;r3 As==10
    615e:	1f 24       	jz	$+64     	;abs 0x619e
    6160:	0c 93       	cmp	#0,	r12	;r3 As==00
    6162:	01 24       	jz	$+4      	;abs 0x6166

00006164 <.Loc.51.1>:
    6164:	30 41       	ret			

00006166 <.L16>:
    6166:	1d 42 ee 4a 	mov	&0x4aee,r13	;0x4aee

0000616a <.Loc.37.1>:
    616a:	6c 4d       	mov.b	@r13,	r12	;
    616c:	5c 06       	rlam	#2,	r12	;
    616e:	6d 4d       	mov.b	@r13,	r13	;
    6170:	0c 5d       	add	r13,	r12	;
    6172:	5c 06       	rlam	#2,	r12	;
    6174:	3d 40 e4 4a 	mov	#19172,	r13	;#0x4ae4
    6178:	3c 50 e4 45 	add	#17892,	r12	;#0x45e4
    617c:	b0 12 3c 63 	call	#25404		;#0x633c

00006180 <.Loc.38.1>:
    6180:	d2 43 f0 4a 	mov.b	#1,	&0x4af0	;r3 As==01

00006184 <.L6>:
    6184:	1d 42 ee 4a 	mov	&0x4aee,r13	;0x4aee

00006188 <.Loc.40.1>:
    6188:	6c 4d       	mov.b	@r13,	r12	;
    618a:	5c 06       	rlam	#2,	r12	;
    618c:	6d 4d       	mov.b	@r13,	r13	;
    618e:	0c 5d       	add	r13,	r12	;
    6190:	5c 06       	rlam	#2,	r12	;
    6192:	
00006194 <L0^A>:
    6194:	e4 45 b0 12 	mov.b	@r5,	4784(r4); 0x12b0
    6198:	72 63       	addc.b	#-1,	r2	;r3 As==11

0000619a <.Loc.41.1>:
    619a:	e2 43 f0 4a 	mov.b	#2,	&0x4af0	;r3 As==10

0000619e <.L7>:
    619e:	1c 42 ee 4a 	mov	&0x4aee,r12	;0x4aee
    61a2:	1c 4c 02 00 	mov	2(r12),	r12	;

000061a6 <.Loc.44.1>:
    61a6:	3c 92       	cmp	#8,	r12	;r2 As==11
    61a8:	04 24       	jz	$+10     	;abs 0x61b2

000061aa <.L9>:
    61aa:	f2 40 03 00 	mov.b	#3,	&0x4af0	;
    61ae:	f0 4a 

000061b0 <.Loc.51.1>:
    61b0:	30 41       	ret			

000061b2 <.L17>:
    61b2:	32 c2       	dint			
    61b4:	03 43       	nop			

000061b6 <.Loc.46.1>:
    61b6:	1c 42 ee 4a 	mov	&0x4aee,r12	;0x4aee
    61ba:	b0 12 bc 64 	call	#25788		;#0x64bc

000061be <.Loc.47.1>:
    61be:	03 43       	nop			
    61c0:	32 d2       	eint			
    61c2:	03 43       	nop			
    61c4:	f2 3f       	jmp	$-26     	;abs 0x61aa

000061c6 <__event_buffer_full_ISR>:
    61c6:	1d 42 ee 4a 	mov	&0x4aee,r13	;0x4aee

000061ca <.Loc.55.1>:
    61ca:	6c 4d       	mov.b	@r13,	r12	;

000061cc <.LVL7>:
    61cc:	5c 06       	rlam	#2,	r12	;
    61ce:	6d 4d       	mov.b	@r13,	r13	;
    61d0:	0c 5d       	add	r13,	r12	;
    61d2:	5c 06       	rlam	#2,	r12	;
    61d4:	3c 50 e4 45 	add	#17892,	r12	;#0x45e4
    61d8:	b0 12 10 63 	call	#25360		;#0x6310

000061dc <.Loc.56.1>:
    61dc:	30 41       	ret			

000061de <__event_signal_ISR>:
    61de:	82 4c ee 4a 	mov	r12,	&0x4aee	;

000061e2 <.Loc.64.1>:
    61e2:	0e 4d       	mov	r13,	r14	;
    61e4:	b2 4e e4 4a 	mov	@r14+,	&0x4ae4	;
    61e8:	b2 4e e6 4a 	mov	@r14+,	&0x4ae6	;
    61ec:	92 4d 04 00 	mov	4(r13),	&0x4ae8	;
    61f0:	e8 4a 
    61f2:	92 4d 06 00 	mov	6(r13),	&0x4aea	;
    61f6:	ea 4a 
    61f8:	92 4e 04 00 	mov	4(r14),	&0x4aec	;
    61fc:	ec 4a 

000061fe <.Loc.65.1>:
    61fe:	c2 43 f0 4a 	mov.b	#0,	&0x4af0	;r3 As==00

00006202 <.LBB4>:
    6202:	5d 42 f0 4a 	mov.b	&0x4af0,r13	;0x4af0

00006206 <.LVL10>:
    6206:	5d 93       	cmp.b	#1,	r13	;r3 As==01
    6208:	14 24       	jz	$+42     	;abs 0x6232
    620a:	6d 93       	cmp.b	#2,	r13	;r3 As==10
    620c:	1f 24       	jz	$+64     	;abs 0x624c
    620e:	0d 93       	cmp	#0,	r13	;r3 As==00
    6210:	01 24       	jz	$+4      	;abs 0x6214

00006212 <.LBE4>:
    6212:	30 41       	ret			

00006214 <.L30>:
    6214:	6d 4c       	mov.b	@r12,	r13	;
    6216:	5d 06       	rlam	#2,	r13	;
    6218:	6c 4c       	mov.b	@r12,	r12	;

0000621a <.LVL11>:
    621a:	0c 5d       	add	r13,	r12	;
    621c:	5c 06       	rlam	#2,	r12	;
    621e:	3d 40 e4 4a 	mov	#19172,	r13	;#0x4ae4
    6222:	3c 50 e4 45 	add	#17892,	r12	;#0x45e4
    6226:	b0 12 3c 63 	call	#25404		;#0x633c

0000622a <.LVL12>:
    622a:	d2 43 f0 4a 	mov.b	#1,	&0x4af0	;r3 As==01
    622e:	1c 42 ee 4a 	mov	&0x4aee,r12	;0x4aee

00006232 <.L20>:
    6232:	6d 4c       	mov.b	@r12,	r13	;
    6234:	5d 06       	rlam	#2,	r13	;
    6236:	6c 4c       	mov.b	@r12,	r12	;
    6238:	0c 5d       	add	r13,	r12	;
    623a:	5c 06       	rlam	#2,	r12	;
    623c:	3c 50 e4 45 	add	#17892,	r12	;#0x45e4
    6240:	b0 12 72 63 	call	#25458		;#0x6372

00006244 <.Loc.41.1>:
    6244:	e2 43 f0 4a 	mov.b	#2,	&0x4af0	;r3 As==10
    6248:	1c 42 ee 4a 	mov	&0x4aee,r12	;0x4aee

0000624c <.L21>:
    624c:	1c 4c 02 00 	mov	2(r12),	r12	;

00006250 <.Loc.44.1>:
    6250:	3c 92       	cmp	#8,	r12	;r2 As==11
    6252:	04 24       	jz	$+10     	;abs 0x625c

00006254 <.L23>:
    6254:	f2 40 03 00 	mov.b	#3,	&0x4af0	;
    6258:	f0 4a 

0000625a <.Loc.67.1>:
    625a:	30 41       	ret			

0000625c <.L31>:
    625c:	32 c2       	dint			
    625e:	03 43       	nop			

00006260 <.Loc.46.1>:
    6260:	1c 42 ee 4a 	mov	&0x4aee,r12	;0x4aee
    6264:	b0 12 bc 64 	call	#25788		;#0x64bc

00006268 <.Loc.47.1>:
    6268:	03 43       	nop			
    626a:	32 d2       	eint			
    626c:	03 43       	nop			
    626e:	f2 3f       	jmp	$-26     	;abs 0x6254

00006270 <__has_events>:
    6270:	6d 4c       	mov.b	@r12,	r13	;
    6272:	5d 06       	rlam	#2,	r13	;
    6274:	6c 4c       	mov.b	@r12,	r12	;

00006276 <.LVL16>:
    6276:	0c 5d       	add	r13,	r12	;
    6278:	5c 06       	rlam	#2,	r12	;
    627a:	3c 50 e4 45 	add	#17892,	r12	;#0x45e4
    627e:	b0 12 fa 62 	call	#25338		;#0x62fa
    6282:	3c f0 ff 00 	and	#255,	r12	;#0x00ff

00006286 <.Loc.71.1>:
    6286:	3c 53       	add	#-1,	r12	;r3 As==11

00006288 <.Loc.75.1>:
    6288:	4e 19 0c 10 	rpt #15 { rrux.w	r12		;
    628c:	30 41       	ret			

0000628e <__lock_event>:
    628e:	0a 15       	pushm	#1,	r10	;16-bit words

00006290 <.LCFI2>:
    6290:	1c 42 ee 4a 	mov	&0x4aee,r12	;0x4aee

00006294 <.LVL19>:
    6294:	6a 4c       	mov.b	@r12,	r10	;

00006296 <.Loc.81.1>:
    6296:	0c 4a       	mov	r10,	r12	;
    6298:	5c 06       	rlam	#2,	r12	;
    629a:	0c 5a       	add	r10,	r12	;
    629c:	5c 06       	rlam	#2,	r12	;
    629e:	3c 50 e4 45 	add	#17892,	r12	;#0x45e4
    62a2:	b0 12 7a 63 	call	#25466		;#0x637a

000062a6 <.Loc.81.1>:
    62a6:	5a 02       	rlam	#1,	r10	;
    62a8:	8a 4c 64 45 	mov	r12,	17764(r10); 0x4564

000062ac <.Loc.82.1>:
    62ac:	1c 42 ee 4a 	mov	&0x4aee,r12	;0x4aee
    62b0:	6c 4c       	mov.b	@r12,	r12	;
    62b2:	5c 02       	rlam	#1,	r12	;

000062b4 <.Loc.83.1>:
    62b4:	1c 4c 64 45 	mov	17764(r12),r12	;0x04564
    62b8:	0a 17       	popm	#1,	r10	;16-bit words

000062ba <.LCFI3>:
    62ba:	30 41       	ret			

000062bc <__release_event>:
    62bc:	1d 42 ee 4a 	mov	&0x4aee,r13	;0x4aee

000062c0 <.Loc.87.1>:
    62c0:	6c 4d       	mov.b	@r13,	r12	;

000062c2 <.LVL22>:
    62c2:	5c 06       	rlam	#2,	r12	;
    62c4:	6d 4d       	mov.b	@r13,	r13	;
    62c6:	0c 5d       	add	r13,	r12	;
    62c8:	5c 06       	rlam	#2,	r12	;
    62ca:	3c 50 e4 45 	add	#17892,	r12	;#0x45e4
    62ce:	b0 12 ac 63 	call	#25516		;#0x63ac

000062d2 <.Loc.88.1>:
    62d2:	1c 42 ee 4a 	mov	&0x4aee,r12	;0x4aee
    62d6:	6c 4c       	mov.b	@r12,	r12	;
    62d8:	5c 02       	rlam	#1,	r12	;
    62da:	8c 43 64 45 	mov	#0,	17764(r12);r3 As==00, 0x4564

000062de <.Loc.89.1>:
    62de:	30 41       	ret			

000062e0 <__perqueue_init>:
    62e0:	
000062e4 <L0^A>:
    62e4:	10 00       	bra	@r0+		;

000062e6 <.Loc.7.1>:
    62e6:	dc ec 11 00 	xor.b	17(r12),17(r12)	;0x00011, 0x0011
    62ea:	11 00 

000062ec <.Loc.8.1>:
    62ec:	dc ec 12 00 	xor.b	18(r12),18(r12)	;0x00012, 0x0012
    62f0:	12 00 

000062f2 <.Loc.9.1>:
    62f2:	dc ec 13 00 	xor.b	19(r12),19(r12)	;0x00013, 0x0013
    62f6:	13 00 

000062f8 <.Loc.10.1>:
    62f8:	30 41       	ret			

000062fa <__perqueue_is_empty>:
    62fa:	5d 4c 11 00 	mov.b	17(r12),r13	;0x00011
    62fe:	5d ec 10 00 	xor.b	16(r12),r13	;0x00010
    6302:	4c 4d       	mov.b	r13,	r12	;

00006304 <.LVL2>:
    6304:	3c f0 ff 00 	and	#255,	r12	;#0x00ff
    6308:	3c 53       	add	#-1,	r12	;r3 As==11

0000630a <.Loc.19.1>:
    630a:	4e 19 0c 10 	rpt #15 { rrux.w	r12		;
    630e:	30 41       	ret			

00006310 <__perqueue_is_full>:
    6310:	5d 4c 11 00 	mov.b	17(r12),r13	;0x00011
    6314:	5d 53       	inc.b	r13		;
    6316:	cc 4d 13 00 	mov.b	r13,	19(r12)	; 0x0013

0000631a <.Loc.24.1>:
    631a:	5d 4c 13 00 	mov.b	19(r12),r13	;0x00013
    631e:	7d 92       	cmp.b	#8,	r13	;r2 As==11
    6320:	02 20       	jnz	$+6      	;abs 0x6326

00006322 <.Loc.25.1>:
    6322:	cc 43 13 00 	mov.b	#0,	19(r12)	;r3 As==00, 0x0013

00006326 <.L5>:
    6326:	5d 4c 10 00 	mov.b	16(r12),r13	;0x00010
    632a:	5d ec 13 00 	xor.b	19(r12),r13	;0x00013
    632e:	4c 4d       	mov.b	r13,	r12	;

00006330 <.LVL4>:
    6330:	3c f0 ff 00 	and	#255,	r12	;#0x00ff
    6334:	3c 53       	add	#-1,	r12	;r3 As==11

00006336 <.Loc.34.1>:
    6336:	4e 19 0c 10 	rpt #15 { rrux.w	r12		;
    633a:	30 41       	ret			

0000633c <__perqueue_push>:
    633c:	5e 4c 11 00 	mov.b	17(r12),r14	;0x00011
    6340:	5e 53       	inc.b	r14		;
    6342:	cc 4e 13 00 	mov.b	r14,	19(r12)	; 0x0013

00006346 <.Loc.39.1>:
    6346:	5e 4c 13 00 	mov.b	19(r12),r14	;0x00013
    634a:	7e 92       	cmp.b	#8,	r14	;r2 As==11
    634c:	02 20       	jnz	$+6      	;abs 0x6352

0000634e <.Loc.40.1>:
    634e:	cc 43 13 00 	mov.b	#0,	19(r12)	;r3 As==00, 0x0013

00006352 <.L7>:
    6352:	5f 4c 13 00 	mov.b	19(r12),r15	;0x00013

00006356 <.Loc.44.1>:
    6356:	5e 4c 10 00 	mov.b	16(r12),r14	;0x00010

0000635a <.Loc.44.1>:
    635a:	0f 9e       	cmp	r14,	r15	;
    635c:	08 24       	jz	$+18     	;abs 0x636e

0000635e <.Loc.49.1>:
    635e:	5e 4c 11 00 	mov.b	17(r12),r14	;0x00011

00006362 <.Loc.49.1>:
    6362:	5e 02       	rlam	#1,	r14	;
    6364:	0c 5e       	add	r14,	r12	;

00006366 <.LVL6>:
    6366:	8c 4d 00 00 	mov	r13,	0(r12)	;

0000636a <.Loc.51.1>:
    636a:	5c 43       	mov.b	#1,	r12	;r3 As==01

0000636c <.Loc.52.1>:
    636c:	30 41       	ret			

0000636e <.L9>:
    636e:	4c 43       	clr.b	r12		;

00006370 <.LVL8>:
    6370:	30 41       	ret			

00006372 <__perqueue_push_commit>:
    6372:	dc 4c 13 00 	mov.b	19(r12),17(r12)	;0x00013, 0x0011
    6376:	11 00 

00006378 <.Loc.59.1>:
    6378:	30 41       	ret			

0000637a <__perqueue_pop>:
    637a:	5e 4c 10 00 	mov.b	16(r12),r14	;0x00010

0000637e <.Loc.63.1>:
    637e:	5d 4c 11 00 	mov.b	17(r12),r13	;0x00011

00006382 <.Loc.63.1>:
    6382:	0e 9d       	cmp	r13,	r14	;
    6384:	11 24       	jz	$+36     	;abs 0x63a8

00006386 <.Loc.68.1>:
    6386:	5d 4c 10 00 	mov.b	16(r12),r13	;0x00010
    638a:	5d 53       	inc.b	r13		;
    638c:	cc 4d 12 00 	mov.b	r13,	18(r12)	; 0x0012

00006390 <.Loc.69.1>:
    6390:	5d 4c 12 00 	mov.b	18(r12),r13	;0x00012
    6394:	7d 92       	cmp.b	#8,	r13	;r2 As==11
    6396:	02 20       	jnz	$+6      	;abs 0x639c

00006398 <.Loc.70.1>:
    6398:	cc 43 12 00 	mov.b	#0,	18(r12)	;r3 As==00, 0x0012

0000639c <.L13>:
    639c:	5d 4c 10 00 	mov.b	16(r12),r13	;0x00010

000063a0 <.Loc.72.1>:
    63a0:	5d 02       	rlam	#1,	r13	;
    63a2:	0c 5d       	add	r13,	r12	;

000063a4 <.LVL11>:
    63a4:	2c 4c       	mov	@r12,	r12	;

000063a6 <.Loc.73.1>:
    63a6:	30 41       	ret			

000063a8 <.L14>:
    63a8:	4c 43       	clr.b	r12		;

000063aa <.LVL13>:
    63aa:	30 41       	ret			

000063ac <__perqueue_pop_commit>:
    63ac:	dc 4c 12 00 	mov.b	18(r12),16(r12)	;0x00012, 0x0010
    63b0:	10 00 

000063b2 <.Loc.79.1>:
    63b2:	30 41       	ret			

000063b4 <__fram_init>:
    63b4:	b2 40 10 a5 	mov	#-23280,&0x0140	;#0xa510
    63b8:	40 01 

000063ba <.Loc.12.1>:
    63ba:	f2 d0 a5 ff 	bis.b	#-91,	&0x0141	;#0xffa5
    63be:	41 01 

000063c0 <.Loc.13.1>:
    63c0:	30 41       	ret			

000063c2 <__fram_word_copy>:
    63c2:	0a 15       	pushm	#1,	r10	;16-bit words

000063c4 <.LCFI0>:
    63c4:	21 82       	sub	#4,	r1	;r2 As==10

000063c6 <.LBB2>:
    63c6:	0a 4c       	mov	r12,	r10	;
    63c8:	0b 43       	clr	r11		;
    63ca:	81 4a 00 00 	mov	r10,	0(r1)	;
    63ce:	81 4b 02 00 	mov	r11,	2(r1)	;

000063d2 <.Loc.20.1>:
    63d2:	3c 40 12 05 	mov	#1298,	r12	;#0x0512

000063d6 <.LVL1>:
    63d6:	00 18 ec 41 	movx.a	@r1,	0(r12)	;
    63da:	00 00 

000063dc <.LBB3>:
    63dc:	0a 4d       	mov	r13,	r10	;
    63de:	0b 43       	clr	r11		;

000063e0 <.LVL2>:
    63e0:	81 4a 00 00 	mov	r10,	0(r1)	;
    63e4:	81 4b 02 00 	mov	r11,	2(r1)	;

000063e8 <.Loc.21.1>:
    63e8:	3c 40 16 05 	mov	#1302,	r12	;#0x0516
    63ec:	00 18 ec 41 	movx.a	@r1,	0(r12)	;
    63f0:	00 00 

000063f2 <.LBE3>:
    63f2:	82 4e 1a 05 	mov	r14,	&0x051a	;

000063f6 <.Loc.25.1>:
    63f6:	b2 40 00 5f 	mov	#24320,	&0x0510	;#0x5f00
    63fa:	10 05 

000063fc <.Loc.26.1>:
    63fc:	b2 d0 10 00 	bis	#16,	&0x0510	;#0x0010
    6400:	10 05 

00006402 <.Loc.28.1>:
    6402:	92 d3 10 05 	bis	#1,	&0x0510	;r3 As==01

00006406 <.Loc.29.1>:
    6406:	21 52       	add	#4,	r1	;r2 As==10

00006408 <.LCFI2>:
    6408:	0a 17       	popm	#1,	r10	;16-bit words

0000640a <.LCFI3>:
    640a:	30 41       	ret			

0000640c <__scheduler_boot_init>:
    640c:	3c 40 f4 4a 	mov	#19188,	r12	;#0x4af4
    6410:	b0 12 b6 71 	call	#29110		;#0x71b6

00006414 <.Loc.54.1>:
    6414:	7d 40 40 00 	mov.b	#64,	r13	;#0x0040

00006418 <.L2>:
    6418:	0c 4d       	mov	r13,	r12	;
    641a:	5c 02       	rlam	#1,	r12	;
    641c:	0c 5d       	add	r13,	r12	;
    641e:	5c 06       	rlam	#2,	r12	;
    6420:	0c 5d       	add	r13,	r12	;
    6422:	5c 02       	rlam	#1,	r12	;
    6424:	1c 4c 00 4b 	mov	19200(r12),r12	;0x04b00

00006428 <.LVL2>:
    6428:	3d 53       	add	#-1,	r13	;r3 As==11

0000642a <.Loc.56.1>:
    642a:	0d 93       	cmp	#0,	r13	;r3 As==00
    642c:	f5 23       	jnz	$-20     	;abs 0x6418

0000642e <.Loc.60.1>:
    642e:	c2 43 c9 1c 	mov.b	#0,	&0x1cc9	;r3 As==00

00006432 <.Loc.61.1>:
    6432:	30 41       	ret			

00006434 <__create_thread>:
    6434:	3c f0 ff 00 	and	#255,	r12	;#0x00ff

00006438 <.Loc.68.1>:
    6438:	0b 4c       	mov	r12,	r11	;
    643a:	5b 02       	rlam	#1,	r11	;
    643c:	0b 5c       	add	r12,	r11	;
    643e:	5b 06       	rlam	#2,	r11	;
    6440:	0b 5c       	add	r12,	r11	;
    6442:	5b 02       	rlam	#1,	r11	;
    6444:	cb 4c fe 4a 	mov.b	r12,	19198(r11); 0x4afe

00006448 <.Loc.69.1>:
    6448:	8b 4d 02 4b 	mov	r13,	19202(r11); 0x4b02

0000644c <.Loc.70.1>:
    644c:	8b 4d 06 4b 	mov	r13,	19206(r11); 0x4b06

00006450 <.Loc.71.1>:
    6450:	bb 42 00 4b 	mov	#8,	19200(r11);r2 As==11, 0x4b00

00006454 <.Loc.74.1>:
    6454:	8b 4e 08 4b 	mov	r14,	19208(r11); 0x4b08

00006458 <.Loc.75.1>:
    6458:	8b 4f 0a 4b 	mov	r15,	19210(r11); 0x4b0a

0000645c <.Loc.76.1>:
    645c:	cb 43 0c 4b 	mov.b	#0,	19212(r11);r3 As==00, 0x4b0c

00006460 <.Loc.77.1>:
    6460:	9b 41 02 00 	mov	2(r1),	19214(r11); 0x4b0e
    6464:	0e 4b 

00006466 <.Loc.78.1>:
    6466:	30 41       	ret			

00006468 <__stop_thread>:
    6468:	0a 15       	pushm	#1,	r10	;16-bit words

0000646a <.LCFI0>:
    646a:	0a 4c       	mov	r12,	r10	;

0000646c <.Loc.82.1>:
    646c:	3d 40 f4 4a 	mov	#19188,	r13	;#0x4af4
    6470:	6c 4c       	mov.b	@r12,	r12	;

00006472 <.LVL6>:
    6472:	b0 12 fc 71 	call	#29180		;#0x71fc

00006476 <.Loc.83.1>:
    6476:	ba 42 02 00 	mov	#8,	2(r10)	;r2 As==11

0000647a <.Loc.84.1>:
    647a:	0a 17       	popm	#1,	r10	;16-bit words

0000647c <.LCFI1>:
    647c:	30 41       	ret			

0000647e <__evict_thread>:
    647e:	0a 15       	pushm	#1,	r10	;16-bit words

00006480 <.LCFI2>:
    6480:	0a 4c       	mov	r12,	r10	;

00006482 <.Loc.88.1>:
    6482:	3d 40 f4 4a 	mov	#19188,	r13	;#0x4af4
    6486:	6c 4c       	mov.b	@r12,	r12	;

00006488 <.LVL9>:
    6488:	b0 12 fc 71 	call	#29180		;#0x71fc

0000648c <.Loc.89.1>:
    648c:	8a 43 08 00 	mov	#0,	8(r10)	;r3 As==00

00006490 <.Loc.90.1>:
    6490:	ba 42 02 00 	mov	#8,	2(r10)	;r2 As==11

00006494 <.Loc.91.1>:
    6494:	0a 17       	popm	#1,	r10	;16-bit words

00006496 <.LCFI3>:
    6496:	30 41       	ret			

00006498 <__set_sing_timer>:
    6498:	8c 4d 12 00 	mov	r13,	18(r12)	; 0x0012

0000649c <.Loc.95.1>:
    649c:	30 41       	ret			

0000649e <__set_expr_timer>:
    649e:	8c 4d 16 00 	mov	r13,	22(r12)	; 0x0016

000064a2 <.Loc.101.1>:
    64a2:	30 41       	ret			

000064a4 <__set_pdc_timer>:
    64a4:	8c 4d 14 00 	mov	r13,	20(r12)	; 0x0014

000064a8 <.Loc.107.1>:
    64a8:	30 41       	ret			

000064aa <__set_pdc_period>:
    64aa:	8c 4d 18 00 	mov	r13,	24(r12)	; 0x0018

000064ae <.Loc.112.1>:
    64ae:	30 41       	ret			

000064b0 <__get_pdc_timer>:
    64b0:	1c 4c 14 00 	mov	20(r12),r12	;0x00014

000064b4 <.LVL16>:
    64b4:	30 41       	ret			

000064b6 <__get_pdc_period>:
    64b6:	1c 4c 18 00 	mov	24(r12),r12	;0x00018

000064ba <.LVL18>:
    64ba:	30 41       	ret			

000064bc <__start_thread>:
    64bc:	0a 15       	pushm	#1,	r10	;16-bit words

000064be <.LCFI4>:
    64be:	0a 4c       	mov	r12,	r10	;

000064c0 <.Loc.125.1>:
    64c0:	9c 4c 04 00 	mov	4(r12),	8(r12)	;
    64c4:	08 00 

000064c6 <.Loc.126.1>:
    64c6:	3d 40 f4 4a 	mov	#19188,	r13	;#0x4af4
    64ca:	6c 4c       	mov.b	@r12,	r12	;

000064cc <.LVL20>:
    64cc:	b0 12 dc 71 	call	#29148		;#0x71dc

000064d0 <.Loc.127.1>:
    64d0:	9a 43 02 00 	mov	#1,	2(r10)	;r3 As==01

000064d4 <.Loc.128.1>:
    64d4:	0a 17       	popm	#1,	r10	;16-bit words

000064d6 <.LCFI5>:
    64d6:	30 41       	ret			

000064d8 <__get_thread>:
    64d8:	3c f0 ff 00 	and	#255,	r12	;#0x00ff

000064dc <.Loc.140.1>:
    64dc:	0d 4c       	mov	r12,	r13	;
    64de:	5d 02       	rlam	#1,	r13	;
    64e0:	0d 5c       	add	r12,	r13	;
    64e2:	5d 06       	rlam	#2,	r13	;
    64e4:	0c 5d       	add	r13,	r12	;

000064e6 <.LVL23>:
    64e6:	5c 02       	rlam	#1,	r12	;

000064e8 <.Loc.141.1>:
    64e8:	3c 50 fe 4a 	add	#19198,	r12	;#0x4afe
    64ec:	30 41       	ret			

000064ee <__scheduler_run>:
    64ee:	32 c2       	dint			
    64f0:	03 43       	nop			

000064f2 <.Loc.159.1>:
    64f2:	b0 12 54 61 	call	#24916		;#0x6154

000064f6 <.Loc.162.1>:
    64f6:	f2 d2 02 02 	bis.b	#8,	&0x0202	;r2 As==11

000064fa <.Loc.162.1>:
    64fa:	f2 c2 02 02 	bic.b	#8,	&0x0202	;r2 As==11

000064fe <.LBB8>:
    64fe:	82 93 f2 4a 	cmp	#0,	&0x4af2	;r3 As==00
    6502:	04 24       	jz	$+10     	;abs 0x650c

00006504 <.Loc.146.1>:
    6504:	1c 42 f2 4a 	mov	&0x4af2,r12	;0x4af2
    6508:	b0 12 a2 65 	call	#26018		;#0x65a2

0000650c <.L17>:
    650c:	b0 12 be 66 	call	#26302		;#0x66be

00006510 <.Loc.176.1>:
    6510:	03 43       	nop			
    6512:	32 d2       	eint			
    6514:	03 43       	nop			

00006516 <.Loc.179.1>:
    6516:	f2 d2 02 02 	bis.b	#8,	&0x0202	;r2 As==11

0000651a <.Loc.179.1>:
    651a:	f2 c2 02 02 	bic.b	#8,	&0x0202	;r2 As==11

0000651e <.L20>:
    651e:	5c 42 c9 1c 	mov.b	&0x1cc9,r12	;0x1cc9
    6522:	0c 93       	cmp	#0,	r12	;r3 As==00
    6524:	10 24       	jz	$+34     	;abs 0x6546

00006526 <.L29>:
    6526:	1c 93       	cmp	#1,	r12	;r3 As==01
    6528:	fa 23       	jnz	$-10     	;abs 0x651e
    652a:	1c 42 f2 4a 	mov	&0x4af2,r12	;0x4af2

0000652e <.Loc.196.1>:
    652e:	0c 93       	cmp	#0,	r12	;r3 As==00
    6530:	24 24       	jz	$+74     	;abs 0x657a

00006532 <.L21>:
    6532:	f2 c2 02 02 	bic.b	#8,	&0x0202	;r2 As==11

00006536 <.Loc.198.1>:
    6536:	b0 12 a2 65 	call	#26018		;#0x65a2

0000653a <.Loc.202.1>:
    653a:	c2 43 c9 1c 	mov.b	#0,	&0x1cc9	;r3 As==00

0000653e <.Loc.180.1>:
    653e:	5c 42 c9 1c 	mov.b	&0x1cc9,r12	;0x1cc9
    6542:	0c 93       	cmp	#0,	r12	;r3 As==00
    6544:	f0 23       	jnz	$-30     	;abs 0x6526

00006546 <.L19>:
    6546:	f2 d2 02 02 	bis.b	#8,	&0x0202	;r2 As==11

0000654a <.LBB10>:
    654a:	3c 40 f4 4a 	mov	#19188,	r12	;#0x4af4
    654e:	b0 12 24 72 	call	#29220		;#0x7224
    6552:	4d 4c       	mov.b	r12,	r13	;

00006554 <.LVL29>:
    6554:	4c 93       	cmp.b	#0,	r12	;r3 As==00
    6556:	0d 24       	jz	$+28     	;abs 0x6572

00006558 <.Loc.134.1>:
    6558:	0c 4d       	mov	r13,	r12	;
    655a:	5c 02       	rlam	#1,	r12	;

0000655c <.LVL30>:
    655c:	0c 5d       	add	r13,	r12	;
    655e:	5c 06       	rlam	#2,	r12	;
    6560:	0c 5d       	add	r13,	r12	;
    6562:	5c 02       	rlam	#1,	r12	;
    6564:	3c 50 fe 4a 	add	#19198,	r12	;#0x4afe

00006568 <.LBE10>:
    6568:	82 4c f2 4a 	mov	r12,	&0x4af2	;

0000656c <.Loc.192.1>:
    656c:	d2 43 c9 1c 	mov.b	#1,	&0x1cc9	;r3 As==01

00006570 <.Loc.196.1>:
    6570:	e0 3f       	jmp	$-62     	;abs 0x6532

00006572 <.L30>:
    6572:	82 43 f2 4a 	mov	#0,	&0x4af2	;r3 As==00

00006576 <.Loc.192.1>:
    6576:	d2 43 c9 1c 	mov.b	#1,	&0x1cc9	;r3 As==01

0000657a <.L22>:
    657a:	c2 43 c9 1c 	mov.b	#0,	&0x1cc9	;r3 As==00

0000657e <.Loc.206.1>:
    657e:	32 c2       	dint			
    6580:	03 43       	nop			

00006582 <.LBB12>:
    6582:	3c 40 f4 4a 	mov	#19188,	r12	;#0x4af4
    6586:	b0 12 24 72 	call	#29220		;#0x7224

0000658a <.LVL33>:
    658a:	4c 93       	cmp.b	#0,	r12	;r3 As==00
    658c:	c8 23       	jnz	$-110    	;abs 0x651e

0000658e <.LBE12>:
    658e:	f2 c2 02 02 	bic.b	#8,	&0x0202	;r2 As==11

00006592 <.Loc.210.1>:
    6592:	03 43       	nop			
    6594:	32 d0 d8 00 	bis	#216,	r2	;#0x00d8
    6598:	03 43       	nop			

0000659a <.Loc.213.1>:
    659a:	03 43       	nop			
    659c:	32 d2       	eint			
    659e:	03 43       	nop			
    65a0:	be 3f       	jmp	$-130    	;abs 0x651e

000065a2 <__tick>:
    65a2:	0a 15       	pushm	#1,	r10	;16-bit words

000065a4 <.LCFI0>:
    65a4:	0a 4c       	mov	r12,	r10	;

000065a6 <L0^A>:
    65a6:	1c 4c 02 00 	mov	2(r12),	r12	;

000065aa <.LVL1>:
    65aa:	2c 93       	cmp	#2,	r12	;r3 As==10
    65ac:	35 24       	jz	$+108    	;abs 0x6618
    65ae:	2c 92       	cmp	#4,	r12	;r2 As==10
    65b0:	56 24       	jz	$+174    	;abs 0x665e
    65b2:	1c 93       	cmp	#1,	r12	;r3 As==01
    65b4:	02 24       	jz	$+6      	;abs 0x65ba

000065b6 <.Loc.145.1>:
    65b6:	0a 17       	popm	#1,	r10	;16-bit words

000065b8 <.LCFI1>:
    65b8:	30 41       	ret			

000065ba <.L17>:
    65ba:	f2 d0 40 00 	bis.b	#64,	&0x0222	;#0x0040
    65be:	22 02 

000065c0 <.Loc.11.1>:
    65c0:	5f 4a 0e 00 	mov.b	14(r10),r15	;0x0000e

000065c4 <.Loc.14.1>:
    65c4:	5c 4a 0e 00 	mov.b	14(r10),r12	;0x0000e
    65c8:	5c e3       	xor.b	#1,	r12	;r3 As==01
    65ca:	3c f0 ff 00 	and	#255,	r12	;#0x00ff

000065ce <.Loc.14.1>:
    65ce:	5c 02       	rlam	#1,	r12	;
    65d0:	0c 5a       	add	r10,	r12	;
    65d2:	5f 02       	rlam	#1,	r15	;
    65d4:	0f 5a       	add	r10,	r15	;
    65d6:	1e 4a 10 00 	mov	16(r10),r14	;0x00010
    65da:	5e 03       	rrum	#1,	r14	;
    65dc:	1d 4c 0a 00 	mov	10(r12),r13	;0x0000a
    65e0:	1c 4f 0a 00 	mov	10(r15),r12	;0x0000a
    65e4:	b0 12 c2 63 	call	#25538		;#0x63c2

000065e8 <.Loc.17.1>:
    65e8:	f2 f0 bf ff 	and.b	#-65,	&0x0222	;#0xffbf
    65ec:	22 02 

000065ee <.LBE5>:
    65ee:	f2 d0 10 00 	bis.b	#16,	&0x0202	;#0x0010
    65f2:	02 02 

000065f4 <.Loc.48.1>:
    65f4:	5c 4a 0e 00 	mov.b	14(r10),r12	;0x0000e
    65f8:	5c e3       	xor.b	#1,	r12	;r3 As==01
    65fa:	c2 4c 7e 51 	mov.b	r12,	&0x517e	;

000065fe <.Loc.60.1>:
    65fe:	1c 4a 08 00 	mov	8(r10),	r12	;

00006602 <.Loc.60.1>:
    6602:	1c 9a 04 00 	cmp	4(r10),	r12	;
    6606:	48 24       	jz	$+146    	;abs 0x6698

00006608 <.Loc.77.1>:
    6608:	8c 12       	call	r12		;

0000660a <.Loc.77.1>:
    660a:	8a 4c 06 00 	mov	r12,	6(r10)	;

0000660e <.L8>:
    660e:	aa 43 02 00 	mov	#2,	2(r10)	;r3 As==10

00006612 <.Loc.83.1>:
    6612:	f2 f0 ef ff 	and.b	#-17,	&0x0202	;#0xffef
    6616:	02 02 

00006618 <.L2>:
    6618:	f2 d0 20 00 	bis.b	#32,	&0x0222	;#0x0020
    661c:	22 02 

0000661e <.Loc.87.1>:
    661e:	0c 4a       	mov	r10,	r12	;
    6620:	b0 12 bc 62 	call	#25276		;#0x62bc

00006624 <.Loc.96.1>:
    6624:	1c 4a 06 00 	mov	6(r10),	r12	;

00006628 <.Loc.96.1>:
    6628:	8a 4c 08 00 	mov	r12,	8(r10)	;

0000662c <.Loc.108.1>:
    662c:	5d 4a 0e 00 	mov.b	14(r10),r13	;0x0000e
    6630:	5d e3       	xor.b	#1,	r13	;r3 As==01
    6632:	ca 4d 0f 00 	mov.b	r13,	15(r10)	; 0x000f

00006636 <.Loc.110.1>:
    6636:	aa 42 02 00 	mov	#4,	2(r10)	;r2 As==10

0000663a <.Loc.115.1>:
    663a:	da 4a 0f 00 	mov.b	15(r10),14(r10)	;0x0000f, 0x000e
    663e:	0e 00 

00006640 <.Loc.117.1>:
    6640:	f2 f0 df ff 	and.b	#-33,	&0x0222	;#0xffdf
    6644:	22 02 

00006646 <.Loc.117.1>:
    6646:	f2 d0 20 00 	bis.b	#32,	&0x0222	;#0x0020
    664a:	22 02 

0000664c <.Loc.118.1>:
    664c:	0c 93       	cmp	#0,	r12	;r3 As==00
    664e:	14 24       	jz	$+42     	;abs 0x6678

00006650 <.L9>:
    6650:	9a 43 02 00 	mov	#1,	2(r10)	;r3 As==01

00006654 <.L12>:
    6654:	f2 f0 df ff 	and.b	#-33,	&0x0222	;#0xffdf
    6658:	22 02 

0000665a <.Loc.142.1>:
    665a:	0a 17       	popm	#1,	r10	;16-bit words

0000665c <.LCFI3>:
    665c:	30 41       	ret			

0000665e <.L3>:
    665e:	1c 4a 08 00 	mov	8(r10),	r12	;

00006662 <.Loc.115.1>:
    6662:	da 4a 0f 00 	mov.b	15(r10),14(r10)	;0x0000f, 0x000e
    6666:	0e 00 

00006668 <.Loc.117.1>:
    6668:	f2 f0 df ff 	and.b	#-33,	&0x0222	;#0xffdf
    666c:	22 02 

0000666e <.Loc.117.1>:
    666e:	f2 d0 20 00 	bis.b	#32,	&0x0222	;#0x0020
    6672:	22 02 

00006674 <.Loc.118.1>:
    6674:	0c 93       	cmp	#0,	r12	;r3 As==00
    6676:	ec 23       	jnz	$-38     	;abs 0x6650

00006678 <.L19>:
    6678:	32 c2       	dint			
    667a:	03 43       	nop			

0000667c <.Loc.125.1>:
    667c:	0c 4a       	mov	r10,	r12	;
    667e:	b0 12 70 62 	call	#25200		;#0x6270

00006682 <.Loc.125.1>:
    6682:	4c 93       	cmp.b	#0,	r12	;r3 As==00
    6684:	12 24       	jz	$+38     	;abs 0x66aa

00006686 <.Loc.131.1>:
    6686:	9a 4a 04 00 	mov	4(r10),	8(r10)	;
    668a:	08 00 

0000668c <.Loc.133.1>:
    668c:	9a 43 02 00 	mov	#1,	2(r10)	;r3 As==01

00006690 <.Loc.135.1>:
    6690:	03 43       	nop			
    6692:	32 d2       	eint			
    6694:	03 43       	nop			
    6696:	de 3f       	jmp	$-66     	;abs 0x6654

00006698 <.L18>:
    6698:	0c 4a       	mov	r10,	r12	;
    669a:	b0 12 8e 62 	call	#25230		;#0x628e

0000669e <.LVL10>:
    669e:	1d 4a 04 00 	mov	4(r10),	r13	;
    66a2:	8d 12       	call	r13		;

000066a4 <.LVL11>:
    66a4:	8a 4c 06 00 	mov	r12,	6(r10)	;

000066a8 <.LBE7>:
    66a8:	b2 3f       	jmp	$-154    	;abs 0x660e

000066aa <.L20>:
    66aa:	0c 4a       	mov	r10,	r12	;
    66ac:	b0 12 68 64 	call	#25704		;#0x6468

000066b0 <.Loc.135.1>:
    66b0:	03 43       	nop			
    66b2:	32 d2       	eint			
    66b4:	03 43       	nop			
    66b6:	ce 3f       	jmp	$-98     	;abs 0x6654

000066b8 <__timers_init>:
    66b8:	b0 12 1e 73 	call	#29470		;#0x731e

000066bc <.Loc.64.1>:
    66bc:	30 41       	ret			

000066be <__reboot_timers>:
    66be:	30 41       	ret			

000066c0 <clear_wkup_status>:
    66c0:	0a 15       	pushm	#1,	r10	;16-bit words

000066c2 <.LCFI0>:
    66c2:	4a 4c       	mov.b	r12,	r10	;

000066c4 <.Loc.100.1>:
    66c4:	5c 92 fe 1c 	cmp.b	&0x1cfe,r12	;0x1cfe
    66c8:	19 24       	jz	$+52     	;abs 0x66fc

000066ca <.L5>:
    66ca:	c2 9a 08 1d 	cmp.b	r10,	&0x1d08	;
    66ce:	0e 24       	jz	$+30     	;abs 0x66ec

000066d0 <.L6>:
    66d0:	c2 9a 12 1d 	cmp.b	r10,	&0x1d12	;
    66d4:	02 24       	jz	$+6      	;abs 0x66da

000066d6 <.Loc.109.1>:
    66d6:	0a 17       	popm	#1,	r10	;16-bit words

000066d8 <.LCFI1>:
    66d8:	30 41       	ret			

000066da <.L10>:
    66da:	82 43 10 1d 	mov	#0,	&0x1d10	;r3 As==00

000066de <.Loc.105.1>:
    66de:	4e 43       	clr.b	r14		;
    66e0:	4d 43       	clr.b	r13		;
    66e2:	6c 43       	mov.b	#2,	r12	;r3 As==10
    66e4:	b0 12 e0 73 	call	#29664		;#0x73e0

000066e8 <.Loc.101.1>:
    66e8:	0a 17       	popm	#1,	r10	;16-bit words

000066ea <.LCFI3>:
    66ea:	30 41       	ret			

000066ec <.L9>:
    66ec:	82 43 06 1d 	mov	#0,	&0x1d06	;r3 As==00

000066f0 <.Loc.105.1>:
    66f0:	4e 43       	clr.b	r14		;
    66f2:	4d 43       	clr.b	r13		;
    66f4:	5c 43       	mov.b	#1,	r12	;r3 As==01
    66f6:	b0 12 e0 73 	call	#29664		;#0x73e0
    66fa:	ea 3f       	jmp	$-42     	;abs 0x66d0

000066fc <.L8>:
    66fc:	82 43 fc 1c 	mov	#0,	&0x1cfc	;r3 As==00

00006700 <.Loc.105.1>:
    6700:	4e 43       	clr.b	r14		;
    6702:	4d 43       	clr.b	r13		;
    6704:	4c 43       	clr.b	r12		;

00006706 <.LVL9>:
    6706:	b0 12 e0 73 	call	#29664		;#0x73e0
    670a:	df 3f       	jmp	$-64     	;abs 0x66ca

0000670c <unpack_wkup_to_local>:
    670c:	2a 15       	pushm	#3,	r10	;16-bit words

0000670e <.LCFI5>:
    670e:	31 80 0a 00 	sub	#10,	r1	;#0x000a

00006712 <.LCFI6>:
    6712:	49 43       	clr.b	r9		;
    6714:	38 40 fc 1c 	mov	#7420,	r8	;#0x1cfc

00006718 <.L12>:
    6718:	0a 49       	mov	r9,	r10	;
    671a:	5a 06       	rlam	#2,	r10	;
    671c:	0a 59       	add	r9,	r10	;
    671e:	5a 02       	rlam	#1,	r10	;
    6720:	0a 58       	add	r8,	r10	;
    6722:	4e 43       	clr.b	r14		;
    6724:	4d 49       	mov.b	r9,	r13	;
    6726:	0c 41       	mov	r1,	r12	;
    6728:	b0 12 dc 75 	call	#30172		;#0x75dc
    672c:	aa 41 00 00 	mov	@r1,	0(r10)	;
    6730:	9a 41 02 00 	mov	2(r1),	2(r10)	;
    6734:	02 00 
    6736:	9a 41 04 00 	mov	4(r1),	4(r10)	;
    673a:	04 00 
    673c:	9a 41 06 00 	mov	6(r1),	6(r10)	;
    6740:	06 00 
    6742:	9a 41 08 00 	mov	8(r1),	8(r10)	;
    6746:	08 00 

00006748 <.LVL14>:
    6748:	19 53       	inc	r9		;

0000674a <.Loc.115.1>:
    674a:	39 90 03 00 	cmp	#3,	r9	;
    674e:	e4 23       	jnz	$-54     	;abs 0x6718

00006750 <.Loc.120.1>:
    6750:	31 50 0a 00 	add	#10,	r1	;#0x000a

00006754 <.LCFI7>:
    6754:	28 17       	popm	#3,	r10	;16-bit words

00006756 <.LCFI8>:
    6756:	30 41       	ret			

00006758 <refresh_wkup_timers>:
    6758:	5a 15       	pushm	#6,	r10	;16-bit words

0000675a <.LCFI9>:
    675a:	5e 43       	mov.b	#1,	r14	;r3 As==01

0000675c <.Loc.127.1>:
    675c:	4a 43       	clr.b	r10		;
    675e:	38 40 fc 1c 	mov	#7420,	r8	;#0x1cfc

00006762 <.L40>:
    6762:	09 4a       	mov	r10,	r9	;
    6764:	05 4a       	mov	r10,	r5	;
    6766:	55 06       	rlam	#2,	r5	;
    6768:	0c 45       	mov	r5,	r12	;
    676a:	0c 5a       	add	r10,	r12	;
    676c:	5c 02       	rlam	#1,	r12	;
    676e:	0d 4c       	mov	r12,	r13	;
    6770:	3d 50 fc 1c 	add	#7420,	r13	;#0x1cfc

00006774 <.Loc.130.1>:
    6774:	9c 93 fc 1c 	cmp	#1,	7420(r12);r3 As==01, 0x1cfc
    6778:	0c 24       	jz	$+26     	;abs 0x6792

0000677a <.L15>:
    677a:	4c 4a       	mov.b	r10,	r12	;
    677c:	5c 53       	inc.b	r12		;
    677e:	4a 4c       	mov.b	r12,	r10	;

00006780 <.LVL19>:
    6780:	7c 90 03 00 	cmp.b	#3,	r12	;
    6784:	ee 23       	jnz	$-34     	;abs 0x6762

00006786 <.Loc.164.1>:
    6786:	0e 93       	cmp	#0,	r14	;r3 As==00
    6788:	54 24       	jz	$+170    	;abs 0x6832

0000678a <.Loc.174.1>:
    678a:	b0 12 3a 72 	call	#29242		;#0x723a

0000678e <.LVL20>:
    678e:	55 17       	popm	#6,	r10	;16-bit words

00006790 <.LCFI10>:
    6790:	30 41       	ret			

00006792 <.L84>:
    6792:	16 4d 04 00 	mov	4(r13),	r6	;
    6796:	17 4d 06 00 	mov	6(r13),	r7	;

0000679a <.Loc.133.1>:
    679a:	0e 93       	cmp	#0,	r14	;r3 As==00
    679c:	05 24       	jz	$+12     	;abs 0x67a8

0000679e <.Loc.135.1>:
    679e:	82 46 22 1d 	mov	r6,	&0x1d22	;

000067a2 <.Loc.136.1>:
    67a2:	d2 4d 02 00 	mov.b	2(r13),	&0x1d24	;
    67a6:	24 1d 

000067a8 <.L17>:
    67a8:	b0 12 dc 72 	call	#29404		;#0x72dc

000067ac <.Loc.141.1>:
    67ac:	0e 46       	mov	r6,	r14	;
    67ae:	0f 47       	mov	r7,	r15	;
    67b0:	0e 8c       	sub	r12,	r14	;
    67b2:	0f 7d       	subc	r13,	r15	;

000067b4 <.Loc.141.1>:
    67b4:	05 5a       	add	r10,	r5	;
    67b6:	55 02       	rlam	#1,	r5	;
    67b8:	05 58       	add	r8,	r5	;
    67ba:	85 4e 04 00 	mov	r14,	4(r5)	;
    67be:	85 4f 06 00 	mov	r15,	6(r5)	;

000067c2 <.Loc.142.1>:
    67c2:	4d 43       	clr.b	r13		;
    67c4:	4c 4a       	mov.b	r10,	r12	;
    67c6:	b0 12 40 73 	call	#29504		;#0x7340

000067ca <.Loc.144.1>:
    67ca:	1c 45 04 00 	mov	4(r5),	r12	;
    67ce:	1d 45 06 00 	mov	6(r5),	r13	;
    67d2:	4b 4a       	mov.b	r10,	r11	;
    67d4:	5b 53       	inc.b	r11		;
    67d6:	4a 4b       	mov.b	r11,	r10	;

000067d8 <.Loc.144.1>:
    67d8:	07 4d       	mov	r13,	r7	;
    67da:	0d 93       	cmp	#0,	r13	;r3 As==00
    67dc:	3b 38       	jl	$+120    	;abs 0x6854

000067de <.Loc.151.1>:
    67de:	0e 4c       	mov	r12,	r14	;
    67e0:	0e dd       	bis	r13,	r14	;
    67e2:	0e 93       	cmp	#0,	r14	;r3 As==00
    67e4:	af 24       	jz	$+352    	;abs 0x6944

000067e6 <.Loc.155.1>:
    67e6:	16 42 22 1d 	mov	&0x1d22,r6	;0x1d22
    67ea:	0e 46       	mov	r6,	r14	;
    67ec:	0f 43       	clr	r15		;

000067ee <.Loc.155.1>:
    67ee:	0d 93       	cmp	#0,	r13	;r3 As==00
    67f0:	18 34       	jge	$+50     	;abs 0x6822

000067f2 <.L50>:
    67f2:	0e 49       	mov	r9,	r14	;
    67f4:	5e 06       	rlam	#2,	r14	;
    67f6:	09 5e       	add	r14,	r9	;
    67f8:	59 02       	rlam	#1,	r9	;
    67fa:	5e 49 fe 1c 	mov.b	7422(r9),r14	;0x01cfe

000067fe <.L37>:
    67fe:	82 4c 22 1d 	mov	r12,	&0x1d22	;

00006802 <.Loc.158.1>:
    6802:	c2 4e 24 1d 	mov.b	r14,	&0x1d24	;

00006806 <.Loc.127.1>:
    6806:	7b 90 03 00 	cmp.b	#3,	r11	;
    680a:	15 24       	jz	$+44     	;abs 0x6836

0000680c <.L74>:
    680c:	09 4a       	mov	r10,	r9	;
    680e:	05 4a       	mov	r10,	r5	;
    6810:	55 06       	rlam	#2,	r5	;
    6812:	0c 45       	mov	r5,	r12	;
    6814:	0c 5a       	add	r10,	r12	;
    6816:	5c 02       	rlam	#1,	r12	;

00006818 <.Loc.130.1>:
    6818:	9c 93 fc 1c 	cmp	#1,	7420(r12);r3 As==01, 0x1cfc
    681c:	41 24       	jz	$+132    	;abs 0x68a0

0000681e <.L91>:
    681e:	4e 43       	clr.b	r14		;
    6820:	ac 3f       	jmp	$-166    	;abs 0x677a

00006822 <.L87>:
    6822:	0d 93       	cmp	#0,	r13	;r3 As==00
    6824:	62 24       	jz	$+198    	;abs 0x68ea

00006826 <.L35>:
    6826:	07 4c       	mov	r12,	r7	;
    6828:	0c 9e       	cmp	r14,	r12	;
    682a:	79 24       	jz	$+244    	;abs 0x691e

0000682c <.L38>:
    682c:	7b 90 03 00 	cmp.b	#3,	r11	;
    6830:	ed 23       	jnz	$-36     	;abs 0x680c

00006832 <.L72>:
    6832:	5e 42 24 1d 	mov.b	&0x1d24,r14	;0x1d24

00006836 <.L43>:
    6836:	4d 4e       	mov.b	r14,	r13	;
    6838:	4c 43       	clr.b	r12		;
    683a:	b0 12 28 74 	call	#29736		;#0x7428

0000683e <.Loc.167.1>:
    683e:	1d 42 22 1d 	mov	&0x1d22,r13	;0x1d22
    6842:	4c 43       	clr.b	r12		;
    6844:	b0 12 36 74 	call	#29750		;#0x7436

00006848 <.Loc.171.1>:
    6848:	1c 42 22 1d 	mov	&0x1d22,r12	;0x1d22
    684c:	b0 12 4e 72 	call	#29262		;#0x724e

00006850 <.Loc.177.1>:
    6850:	55 17       	popm	#6,	r10	;16-bit words

00006852 <.LCFI12>:
    6852:	30 41       	ret			

00006854 <.L85>:
    6854:	5e 42 25 1d 	mov.b	&0x1d25,r14	;0x1d25
    6858:	06 43       	clr	r6		;
    685a:	06 8e       	sub	r14,	r6	;
    685c:	0e 46       	mov	r6,	r14	;
    685e:	0f 46       	mov	r6,	r15	;
    6860:	4e 18 0f 11 	rpt #15 { rrax.w	r15		;

00006864 <.Loc.144.1>:
    6864:	05 4f       	mov	r15,	r5	;
    6866:	0f 9d       	cmp	r13,	r15	;
    6868:	25 38       	jl	$+76     	;abs 0x68b4

0000686a <.Loc.144.1>:
    686a:	0d 9f       	cmp	r15,	r13	;
    686c:	21 24       	jz	$+68     	;abs 0x68b0

0000686e <.L20>:
    686e:	07 4d       	mov	r13,	r7	;
    6870:	0d 9f       	cmp	r15,	r13	;
    6872:	04 38       	jl	$+10     	;abs 0x687c
    6874:	0f 9d       	cmp	r13,	r15	;
    6876:	da 23       	jnz	$-74     	;abs 0x682c
    6878:	0c 96       	cmp	r6,	r12	;
    687a:	d8 2f       	jc	$-78     	;abs 0x682c

0000687c <.L30>:
    687c:	0c 49       	mov	r9,	r12	;
    687e:	5c 06       	rlam	#2,	r12	;
    6880:	09 5c       	add	r12,	r9	;
    6882:	59 02       	rlam	#1,	r9	;
    6884:	89 43 fc 1c 	mov	#0,	7420(r9);r3 As==00, 0x1cfc

00006888 <.Loc.127.1>:
    6888:	7b 90 03 00 	cmp.b	#3,	r11	;
    688c:	d2 27       	jz	$-90     	;abs 0x6832

0000688e <.Loc.130.1>:
    688e:	09 4a       	mov	r10,	r9	;
    6890:	05 4a       	mov	r10,	r5	;
    6892:	55 06       	rlam	#2,	r5	;
    6894:	0c 45       	mov	r5,	r12	;
    6896:	0c 5a       	add	r10,	r12	;
    6898:	5c 02       	rlam	#1,	r12	;

0000689a <.Loc.130.1>:
    689a:	9c 93 fc 1c 	cmp	#1,	7420(r12);r3 As==01, 0x1cfc
    689e:	bf 23       	jnz	$-128    	;abs 0x681e

000068a0 <.L27>:
    68a0:	0c 45       	mov	r5,	r12	;
    68a2:	0c 5a       	add	r10,	r12	;
    68a4:	5c 02       	rlam	#1,	r12	;
    68a6:	16 4c 00 1d 	mov	7424(r12),r6	;0x01d00
    68aa:	17 4c 02 1d 	mov	7426(r12),r7	;0x01d02
    68ae:	7c 3f       	jmp	$-262    	;abs 0x67a8

000068b0 <.L90>:
    68b0:	06 9c       	cmp	r12,	r6	;
    68b2:	dd 2f       	jc	$-68     	;abs 0x686e

000068b4 <.L46>:
    68b4:	1e 42 22 1d 	mov	&0x1d22,r14	;0x1d22
    68b8:	06 4e       	mov	r14,	r6	;
    68ba:	07 43       	clr	r7		;

000068bc <.Loc.146.1>:
    68bc:	4e 43       	clr.b	r14		;
    68be:	4f 43       	clr.b	r15		;
    68c0:	0e 8c       	sub	r12,	r14	;
    68c2:	0f 7d       	subc	r13,	r15	;

000068c4 <.Loc.146.1>:
    68c4:	05 4f       	mov	r15,	r5	;
    68c6:	0f 93       	cmp	#0,	r15	;r3 As==00
    68c8:	14 34       	jge	$+42     	;abs 0x68f2

000068ca <.L22>:
    68ca:	0e 49       	mov	r9,	r14	;
    68cc:	5e 06       	rlam	#2,	r14	;
    68ce:	09 5e       	add	r14,	r9	;
    68d0:	59 02       	rlam	#1,	r9	;
    68d2:	5e 49 fe 1c 	mov.b	7422(r9),r14	;0x01cfe

000068d6 <.L28>:
    68d6:	4f 43       	clr.b	r15		;
    68d8:	0f 8c       	sub	r12,	r15	;
    68da:	82 4f 22 1d 	mov	r15,	&0x1d22	;

000068de <.Loc.149.1>:
    68de:	c2 4e 24 1d 	mov.b	r14,	&0x1d24	;

000068e2 <.Loc.127.1>:
    68e2:	7b 90 03 00 	cmp.b	#3,	r11	;
    68e6:	92 23       	jnz	$-218    	;abs 0x680c
    68e8:	a6 3f       	jmp	$-178    	;abs 0x6836

000068ea <.L88>:
    68ea:	07 4c       	mov	r12,	r7	;
    68ec:	0c 9e       	cmp	r14,	r12	;
    68ee:	9b 2f       	jc	$-200    	;abs 0x6826
    68f0:	80 3f       	jmp	$-254    	;abs 0x67f2

000068f2 <.L92>:
    68f2:	0f 93       	cmp	#0,	r15	;r3 As==00
    68f4:	03 20       	jnz	$+8      	;abs 0x68fc
    68f6:	05 4e       	mov	r14,	r5	;
    68f8:	0e 96       	cmp	r6,	r14	;
    68fa:	e7 2b       	jnc	$-48     	;abs 0x68ca

000068fc <.L47>:
    68fc:	06 9e       	cmp	r14,	r6	;
    68fe:	96 23       	jnz	$-210    	;abs 0x682c
    6900:	0f 93       	cmp	#0,	r15	;r3 As==00
    6902:	94 23       	jnz	$-214    	;abs 0x682c

00006904 <.Loc.146.1>:
    6904:	0e 49       	mov	r9,	r14	;
    6906:	5e 06       	rlam	#2,	r14	;
    6908:	09 5e       	add	r14,	r9	;
    690a:	59 02       	rlam	#1,	r9	;
    690c:	5e 49 fe 1c 	mov.b	7422(r9),r14	;0x01cfe

00006910 <.Loc.146.1>:
    6910:	5f 42 24 1d 	mov.b	&0x1d24,r15	;0x1d24

00006914 <.Loc.146.1>:
    6914:	d9 92 24 1d 	cmp.b	&0x1d24,7422(r9);0x1d24, 0x1cfe
    6918:	fe 1c 
    691a:	dd 2b       	jnc	$-68     	;abs 0x68d6
    691c:	0e 3c       	jmp	$+30     	;abs 0x693a

0000691e <.L89>:
    691e:	0d 9f       	cmp	r15,	r13	;
    6920:	85 23       	jnz	$-244    	;abs 0x682c

00006922 <.Loc.155.1>:
    6922:	0e 49       	mov	r9,	r14	;
    6924:	5e 06       	rlam	#2,	r14	;
    6926:	09 5e       	add	r14,	r9	;
    6928:	59 02       	rlam	#1,	r9	;
    692a:	5e 49 fe 1c 	mov.b	7422(r9),r14	;0x01cfe

0000692e <.Loc.155.1>:
    692e:	5f 42 24 1d 	mov.b	&0x1d24,r15	;0x1d24

00006932 <.Loc.155.1>:
    6932:	d9 92 24 1d 	cmp.b	&0x1d24,7422(r9);0x1d24, 0x1cfe
    6936:	fe 1c 
    6938:	62 2b       	jnc	$-314    	;abs 0x67fe

0000693a <.L39>:
    693a:	7b 90 03 00 	cmp.b	#3,	r11	;
    693e:	66 23       	jnz	$-306    	;abs 0x680c

00006940 <.Loc.155.1>:
    6940:	0e 4f       	mov	r15,	r14	;

00006942 <.Loc.164.1>:
    6942:	79 3f       	jmp	$-268    	;abs 0x6836

00006944 <.L86>:
    6944:	7b 90 03 00 	cmp.b	#3,	r11	;
    6948:	74 27       	jz	$-278    	;abs 0x6832

0000694a <.Loc.130.1>:
    694a:	09 4a       	mov	r10,	r9	;
    694c:	05 4a       	mov	r10,	r5	;
    694e:	55 06       	rlam	#2,	r5	;
    6950:	0c 45       	mov	r5,	r12	;
    6952:	0c 5a       	add	r10,	r12	;
    6954:	5c 02       	rlam	#1,	r12	;

00006956 <.Loc.130.1>:
    6956:	9c 93 fc 1c 	cmp	#1,	7420(r12);r3 As==01, 0x1cfc
    695a:	0f 23       	jnz	$-480    	;abs 0x677a
    695c:	a1 3f       	jmp	$-188    	;abs 0x68a0

0000695e <set_wkup_timer>:
    695e:	4a 15       	pushm	#5,	r10	;16-bit words

00006960 <.LCFI14>:
    6960:	31 80 0a 00 	sub	#10,	r1	;#0x000a

00006964 <.LCFI15>:
    6964:	47 4c       	mov.b	r12,	r7	;
    6966:	09 4d       	mov	r13,	r9	;

00006968 <.LBB12>:
    6968:	46 43       	clr.b	r6		;
    696a:	38 40 fc 1c 	mov	#7420,	r8	;#0x1cfc

0000696e <.L94>:
    696e:	0a 46       	mov	r6,	r10	;
    6970:	5a 06       	rlam	#2,	r10	;
    6972:	0a 56       	add	r6,	r10	;
    6974:	5a 02       	rlam	#1,	r10	;
    6976:	0a 58       	add	r8,	r10	;
    6978:	4e 43       	clr.b	r14		;
    697a:	4d 46       	mov.b	r6,	r13	;
    697c:	0c 41       	mov	r1,	r12	;
    697e:	b0 12 dc 75 	call	#30172		;#0x75dc
    6982:	aa 41 00 00 	mov	@r1,	0(r10)	;
    6986:	9a 41 02 00 	mov	2(r1),	2(r10)	;
    698a:	02 00 
    698c:	9a 41 04 00 	mov	4(r1),	4(r10)	;
    6990:	04 00 
    6992:	9a 41 06 00 	mov	6(r1),	6(r10)	;
    6996:	06 00 
    6998:	9a 41 08 00 	mov	8(r1),	8(r10)	;
    699c:	08 00 

0000699e <.LVL43>:
    699e:	16 53       	inc	r6		;

000069a0 <.Loc.115.1>:
    69a0:	36 90 03 00 	cmp	#3,	r6	;
    69a4:	e4 23       	jnz	$-54     	;abs 0x696e

000069a6 <.Loc.189.1>:
    69a6:	b0 12 3a 72 	call	#29242		;#0x723a

000069aa <.Loc.192.1>:
    69aa:	0e 49       	mov	r9,	r14	;
    69ac:	0f 43       	clr	r15		;

000069ae <.Loc.194.1>:
    69ae:	82 93 fc 1c 	cmp	#0,	&0x1cfc	;r3 As==00
    69b2:	22 24       	jz	$+70     	;abs 0x69f8

000069b4 <.Loc.192.1>:
    69b4:	82 93 06 1d 	cmp	#0,	&0x1d06	;r3 As==00
    69b8:	49 24       	jz	$+148    	;abs 0x6a4c

000069ba <.Loc.192.1>:
    69ba:	82 93 10 1d 	cmp	#0,	&0x1d10	;r3 As==00
    69be:	49 24       	jz	$+148    	;abs 0x6a52

000069c0 <.Loc.192.1>:
    69c0:	82 4e 14 1d 	mov	r14,	&0x1d14	;
    69c4:	82 4f 16 1d 	mov	r15,	&0x1d16	;

000069c8 <.Loc.216.1>:
    69c8:	4d 43       	clr.b	r13		;
    69ca:	6c 43       	mov.b	#2,	r12	;r3 As==10
    69cc:	b0 12 40 73 	call	#29504		;#0x7340

000069d0 <.Loc.217.1>:
    69d0:	c2 47 12 1d 	mov.b	r7,	&0x1d12	;

000069d4 <.Loc.218.1>:
    69d4:	4e 47       	mov.b	r7,	r14	;
    69d6:	4d 43       	clr.b	r13		;
    69d8:	7c 40 03 00 	mov.b	#3,	r12	;
    69dc:	b0 12 94 73 	call	#29588		;#0x7394

000069e0 <.Loc.219.1>:
    69e0:	b0 12 58 67 	call	#26456		;#0x6758

000069e4 <.Loc.222.1>:
    69e4:	4c 43       	clr.b	r12		;
    69e6:	b0 12 44 74 	call	#29764		;#0x7444

000069ea <.Loc.223.1>:
    69ea:	4c 43       	clr.b	r12		;
    69ec:	b0 12 98 75 	call	#30104		;#0x7598

000069f0 <.Loc.224.1>:
    69f0:	31 50 0a 00 	add	#10,	r1	;#0x000a

000069f4 <.LCFI16>:
    69f4:	46 17       	popm	#5,	r10	;16-bit words

000069f6 <.LCFI17>:
    69f6:	30 41       	ret			

000069f8 <.L97>:
    69f8:	1a 42 fc 1c 	mov	&0x1cfc,r10	;0x1cfc

000069fc <.Loc.194.1>:
    69fc:	0d 4a       	mov	r10,	r13	;

000069fe <.L95>:
    69fe:	0c 4d       	mov	r13,	r12	;
    6a00:	5c 06       	rlam	#2,	r12	;
    6a02:	0c 5d       	add	r13,	r12	;
    6a04:	5c 02       	rlam	#1,	r12	;
    6a06:	08 5c       	add	r12,	r8	;
    6a08:	88 4e 04 00 	mov	r14,	4(r8)	;
    6a0c:	88 4f 06 00 	mov	r15,	6(r8)	;

00006a10 <.Loc.197.1>:
    6a10:	4d 43       	clr.b	r13		;
    6a12:	4c 4a       	mov.b	r10,	r12	;
    6a14:	b0 12 40 73 	call	#29504		;#0x7340

00006a18 <.Loc.198.1>:
    6a18:	c8 47 02 00 	mov.b	r7,	2(r8)	;

00006a1c <.Loc.199.1>:
    6a1c:	4e 47       	mov.b	r7,	r14	;
    6a1e:	4d 43       	clr.b	r13		;
    6a20:	4c 4a       	mov.b	r10,	r12	;
    6a22:	b0 12 94 73 	call	#29588		;#0x7394

00006a26 <.Loc.200.1>:
    6a26:	98 43 00 00 	mov	#1,	0(r8)	;r3 As==01

00006a2a <.Loc.201.1>:
    6a2a:	5e 43       	mov.b	#1,	r14	;r3 As==01
    6a2c:	4d 43       	clr.b	r13		;
    6a2e:	4c 4a       	mov.b	r10,	r12	;
    6a30:	b0 12 e0 73 	call	#29664		;#0x73e0

00006a34 <.Loc.202.1>:
    6a34:	b0 12 58 67 	call	#26456		;#0x6758

00006a38 <.Loc.222.1>:
    6a38:	4c 43       	clr.b	r12		;
    6a3a:	b0 12 44 74 	call	#29764		;#0x7444

00006a3e <.Loc.223.1>:
    6a3e:	4c 43       	clr.b	r12		;
    6a40:	b0 12 98 75 	call	#30104		;#0x7598

00006a44 <.Loc.224.1>:
    6a44:	31 50 0a 00 	add	#10,	r1	;#0x000a

00006a48 <.LCFI19>:
    6a48:	46 17       	popm	#5,	r10	;16-bit words

00006a4a <.LCFI20>:
    6a4a:	30 41       	ret			

00006a4c <.L98>:
    6a4c:	5a 43       	mov.b	#1,	r10	;r3 As==01

00006a4e <.Loc.194.1>:
    6a4e:	5d 43       	mov.b	#1,	r13	;r3 As==01
    6a50:	d6 3f       	jmp	$-82     	;abs 0x69fe

00006a52 <.L99>:
    6a52:	6a 43       	mov.b	#2,	r10	;r3 As==10

00006a54 <.Loc.194.1>:
    6a54:	6d 43       	mov.b	#2,	r13	;r3 As==10
    6a56:	d3 3f       	jmp	$-88     	;abs 0x69fe

00006a58 <clear_xpr_status>:
    6a58:	4d 4c       	mov.b	r12,	r13	;

00006a5a <.Loc.236.1>:
    6a5a:	5c 92 e0 1c 	cmp.b	&0x1ce0,r12	;0x1ce0
    6a5e:	14 24       	jz	$+42     	;abs 0x6a88

00006a60 <.Loc.237.1>:
    6a60:	c2 9d ea 1c 	cmp.b	r13,	&0x1cea	;
    6a64:	14 24       	jz	$+42     	;abs 0x6a8e

00006a66 <.Loc.237.1>:
    6a66:	c2 9d f4 1c 	cmp.b	r13,	&0x1cf4	;
    6a6a:	01 24       	jz	$+4      	;abs 0x6a6e

00006a6c <.Loc.246.1>:
    6a6c:	30 41       	ret			

00006a6e <.L106>:
    6a6e:	6c 43       	mov.b	#2,	r12	;r3 As==10

00006a70 <.LVL69>:
    6a70:	6e 43       	mov.b	#2,	r14	;r3 As==10

00006a72 <.L102>:
    6a72:	0d 4e       	mov	r14,	r13	;

00006a74 <.LVL71>:
    6a74:	5d 06       	rlam	#2,	r13	;
    6a76:	0d 5e       	add	r14,	r13	;
    6a78:	5d 02       	rlam	#1,	r13	;
    6a7a:	8d 43 de 1c 	mov	#0,	7390(r13);r3 As==00, 0x1cde

00006a7e <.Loc.241.1>:
    6a7e:	4e 43       	clr.b	r14		;
    6a80:	6d 43       	mov.b	#2,	r13	;r3 As==10
    6a82:	b0 12 e0 73 	call	#29664		;#0x73e0

00006a86 <.Loc.242.1>:
    6a86:	30 41       	ret			

00006a88 <.L104>:
    6a88:	4c 43       	clr.b	r12		;

00006a8a <.LVL74>:
    6a8a:	4e 43       	clr.b	r14		;
    6a8c:	f2 3f       	jmp	$-26     	;abs 0x6a72

00006a8e <.L105>:
    6a8e:	5c 43       	mov.b	#1,	r12	;r3 As==01

00006a90 <.LVL76>:
    6a90:	5e 43       	mov.b	#1,	r14	;r3 As==01
    6a92:	ef 3f       	jmp	$-32     	;abs 0x6a72

00006a94 <unpack_xpr_to_local>:
    6a94:	2a 15       	pushm	#3,	r10	;16-bit words

00006a96 <.LCFI22>:
    6a96:	31 80 0a 00 	sub	#10,	r1	;#0x000a

00006a9a <.LCFI23>:
    6a9a:	49 43       	clr.b	r9		;
    6a9c:	38 40 de 1c 	mov	#7390,	r8	;#0x1cde

00006aa0 <.L108>:
    6aa0:	0a 49       	mov	r9,	r10	;
    6aa2:	5a 06       	rlam	#2,	r10	;
    6aa4:	0a 59       	add	r9,	r10	;
    6aa6:	5a 02       	rlam	#1,	r10	;
    6aa8:	0a 58       	add	r8,	r10	;
    6aaa:	6e 43       	mov.b	#2,	r14	;r3 As==10
    6aac:	4d 49       	mov.b	r9,	r13	;
    6aae:	0c 41       	mov	r1,	r12	;
    6ab0:	b0 12 dc 75 	call	#30172		;#0x75dc
    6ab4:	aa 41 00 00 	mov	@r1,	0(r10)	;
    6ab8:	9a 41 02 00 	mov	2(r1),	2(r10)	;
    6abc:	02 00 
    6abe:	9a 41 04 00 	mov	4(r1),	4(r10)	;
    6ac2:	04 00 
    6ac4:	9a 41 06 00 	mov	6(r1),	6(r10)	;
    6ac8:	06 00 
    6aca:	9a 41 08 00 	mov	8(r1),	8(r10)	;
    6ace:	08 00 

00006ad0 <.LVL80>:
    6ad0:	19 53       	inc	r9		;

00006ad2 <.Loc.252.1>:
    6ad2:	39 90 03 00 	cmp	#3,	r9	;
    6ad6:	e4 23       	jnz	$-54     	;abs 0x6aa0

00006ad8 <.Loc.257.1>:
    6ad8:	31 50 0a 00 	add	#10,	r1	;#0x000a

00006adc <.LCFI24>:
    6adc:	28 17       	popm	#3,	r10	;16-bit words

00006ade <.LCFI25>:
    6ade:	30 41       	ret			

00006ae0 <refresh_xpr_timers>:
    6ae0:	4a 15       	pushm	#5,	r10	;16-bit words

00006ae2 <.LCFI26>:
    6ae2:	92 93 de 1c 	cmp	#1,	&0x1cde	;r3 As==01
    6ae6:	62 24       	jz	$+198    	;abs 0x6bac

00006ae8 <.Loc.265.1>:
    6ae8:	92 93 e8 1c 	cmp	#1,	&0x1ce8	;r3 As==01
    6aec:	07 24       	jz	$+16     	;abs 0x6afc

00006aee <.Loc.265.1>:
    6aee:	92 93 f2 1c 	cmp	#1,	&0x1cf2	;r3 As==01
    6af2:	15 25       	jz	$+556    	;abs 0x6d1e

00006af4 <.Loc.265.1>:
    6af4:	b0 12 7a 72 	call	#29306		;#0x727a

00006af8 <.Loc.313.1>:
    6af8:	46 17       	popm	#5,	r10	;16-bit words

00006afa <.LCFI27>:
    6afa:	30 41       	ret			

00006afc <.L160>:
    6afc:	16 42 ec 1c 	mov	&0x1cec,r6	;0x1cec
    6b00:	17 42 ee 1c 	mov	&0x1cee,r7	;0x1cee

00006b04 <.LVL88>:
    6b04:	5a 42 ea 1c 	mov.b	&0x1cea,r10	;0x1cea

00006b08 <.LVL89>:
    6b08:	08 46       	mov	r6,	r8	;
    6b0a:	09 47       	mov	r7,	r9	;

00006b0c <.L125>:
    6b0c:	b0 12 dc 72 	call	#29404		;#0x72dc

00006b10 <.Loc.278.1>:
    6b10:	0e 46       	mov	r6,	r14	;
    6b12:	0f 47       	mov	r7,	r15	;
    6b14:	0e 8c       	sub	r12,	r14	;
    6b16:	0f 7d       	subc	r13,	r15	;

00006b18 <.Loc.278.1>:
    6b18:	82 4e ec 1c 	mov	r14,	&0x1cec	;
    6b1c:	82 4f ee 1c 	mov	r15,	&0x1cee	;

00006b20 <.Loc.279.1>:
    6b20:	6d 43       	mov.b	#2,	r13	;r3 As==10
    6b22:	5c 43       	mov.b	#1,	r12	;r3 As==01
    6b24:	b0 12 40 73 	call	#29504		;#0x7340

00006b28 <.Loc.281.1>:
    6b28:	1d 42 ec 1c 	mov	&0x1cec,r13	;0x1cec
    6b2c:	1c 42 ee 1c 	mov	&0x1cee,r12	;0x1cee

00006b30 <.Loc.281.1>:
    6b30:	4e 43       	clr.b	r14		;
    6b32:	0e 9c       	cmp	r12,	r14	;
    6b34:	a2 34       	jge	$+326    	;abs 0x6c7a

00006b36 <.L132>:
    6b36:	0c 99       	cmp	r9,	r12	;
    6b38:	04 38       	jl	$+10     	;abs 0x6b42

00006b3a <.L170>:
    6b3a:	09 9c       	cmp	r12,	r9	;
    6b3c:	e5 20       	jnz	$+460    	;abs 0x6d08
    6b3e:	0d 98       	cmp	r8,	r13	;
    6b40:	e3 2c       	jc	$+456    	;abs 0x6d08

00006b42 <.L152>:
    6b42:	5a 42 ea 1c 	mov.b	&0x1cea,r10	;0x1cea

00006b46 <.L130>:
    6b46:	08 4d       	mov	r13,	r8	;
    6b48:	09 4c       	mov	r12,	r9	;

00006b4a <.L117>:
    6b4a:	16 42 f6 1c 	mov	&0x1cf6,r6	;0x1cf6
    6b4e:	17 42 f8 1c 	mov	&0x1cf8,r7	;0x1cf8

00006b52 <.Loc.268.1>:
    6b52:	92 93 f2 1c 	cmp	#1,	&0x1cf2	;r3 As==01
    6b56:	1d 20       	jnz	$+60     	;abs 0x6b92

00006b58 <.L142>:
    6b58:	b0 12 dc 72 	call	#29404		;#0x72dc

00006b5c <.Loc.278.1>:
    6b5c:	0e 46       	mov	r6,	r14	;
    6b5e:	0f 47       	mov	r7,	r15	;
    6b60:	0e 8c       	sub	r12,	r14	;
    6b62:	0f 7d       	subc	r13,	r15	;

00006b64 <.Loc.278.1>:
    6b64:	82 4e f6 1c 	mov	r14,	&0x1cf6	;
    6b68:	82 4f f8 1c 	mov	r15,	&0x1cf8	;

00006b6c <.Loc.279.1>:
    6b6c:	6d 43       	mov.b	#2,	r13	;r3 As==10
    6b6e:	6c 43       	mov.b	#2,	r12	;r3 As==10
    6b70:	b0 12 40 73 	call	#29504		;#0x7340

00006b74 <.Loc.281.1>:
    6b74:	1d 42 f6 1c 	mov	&0x1cf6,r13	;0x1cf6
    6b78:	1c 42 f8 1c 	mov	&0x1cf8,r12	;0x1cf8

00006b7c <.Loc.281.1>:
    6b7c:	4e 43       	clr.b	r14		;
    6b7e:	0e 9c       	cmp	r12,	r14	;
    6b80:	4c 34       	jge	$+154    	;abs 0x6c1a

00006b82 <.L134>:
    6b82:	0c 99       	cmp	r9,	r12	;
    6b84:	76 38       	jl	$+238    	;abs 0x6c72

00006b86 <.L168>:
    6b86:	09 9c       	cmp	r12,	r9	;
    6b88:	02 20       	jnz	$+6      	;abs 0x6b8e
    6b8a:	0d 98       	cmp	r8,	r13	;
    6b8c:	72 28       	jnc	$+230    	;abs 0x6c72

00006b8e <.L139>:
    6b8e:	08 9d       	cmp	r13,	r8	;
    6b90:	d8 24       	jz	$+434    	;abs 0x6d42

00006b92 <.L137>:
    6b92:	4d 4a       	mov.b	r10,	r13	;
    6b94:	6c 43       	mov.b	#2,	r12	;r3 As==10
    6b96:	b0 12 28 74 	call	#29736		;#0x7428

00006b9a <.Loc.305.1>:
    6b9a:	0d 48       	mov	r8,	r13	;
    6b9c:	6c 43       	mov.b	#2,	r12	;r3 As==10
    6b9e:	b0 12 36 74 	call	#29750		;#0x7436

00006ba2 <.Loc.308.1>:
    6ba2:	0c 48       	mov	r8,	r12	;
    6ba4:	b0 12 64 72 	call	#29284		;#0x7264

00006ba8 <.Loc.313.1>:
    6ba8:	46 17       	popm	#5,	r10	;16-bit words

00006baa <.LCFI29>:
    6baa:	30 41       	ret			

00006bac <.L159>:
    6bac:	18 42 e2 1c 	mov	&0x1ce2,r8	;0x1ce2
    6bb0:	19 42 e4 1c 	mov	&0x1ce4,r9	;0x1ce4

00006bb4 <.LVL103>:
    6bb4:	5a 42 e0 1c 	mov.b	&0x1ce0,r10	;0x1ce0

00006bb8 <.LVL104>:
    6bb8:	b0 12 dc 72 	call	#29404		;#0x72dc

00006bbc <.LVL105>:
    6bbc:	0e 48       	mov	r8,	r14	;
    6bbe:	0f 49       	mov	r9,	r15	;
    6bc0:	0e 8c       	sub	r12,	r14	;
    6bc2:	0f 7d       	subc	r13,	r15	;

00006bc4 <.Loc.278.1>:
    6bc4:	82 4e e2 1c 	mov	r14,	&0x1ce2	;
    6bc8:	82 4f e4 1c 	mov	r15,	&0x1ce4	;

00006bcc <.Loc.279.1>:
    6bcc:	6d 43       	mov.b	#2,	r13	;r3 As==10
    6bce:	4c 43       	clr.b	r12		;
    6bd0:	b0 12 40 73 	call	#29504		;#0x7340

00006bd4 <.Loc.281.1>:
    6bd4:	1d 42 e2 1c 	mov	&0x1ce2,r13	;0x1ce2
    6bd8:	1c 42 e4 1c 	mov	&0x1ce4,r12	;0x1ce4

00006bdc <.Loc.281.1>:
    6bdc:	4e 43       	clr.b	r14		;
    6bde:	0e 9c       	cmp	r12,	r14	;
    6be0:	74 34       	jge	$+234    	;abs 0x6cca

00006be2 <.L121>:
    6be2:	0c 99       	cmp	r9,	r12	;
    6be4:	0c 34       	jge	$+26     	;abs 0x6bfe

00006be6 <.L151>:
    6be6:	5a 42 e0 1c 	mov.b	&0x1ce0,r10	;0x1ce0

00006bea <.L119>:
    6bea:	92 93 e8 1c 	cmp	#1,	&0x1ce8	;r3 As==01
    6bee:	ab 23       	jnz	$-168    	;abs 0x6b46

00006bf0 <.Loc.271.1>:
    6bf0:	16 42 ec 1c 	mov	&0x1cec,r6	;0x1cec
    6bf4:	17 42 ee 1c 	mov	&0x1cee,r7	;0x1cee

00006bf8 <.Loc.268.1>:
    6bf8:	08 4d       	mov	r13,	r8	;
    6bfa:	09 4c       	mov	r12,	r9	;
    6bfc:	87 3f       	jmp	$-240    	;abs 0x6b0c

00006bfe <.L165>:
    6bfe:	09 9c       	cmp	r12,	r9	;
    6c00:	02 20       	jnz	$+6      	;abs 0x6c06
    6c02:	0d 98       	cmp	r8,	r13	;
    6c04:	f0 2b       	jnc	$-30     	;abs 0x6be6

00006c06 <.L114>:
    6c06:	0d 98       	cmp	r8,	r13	;
    6c08:	93 24       	jz	$+296    	;abs 0x6d30

00006c0a <.L118>:
    6c0a:	92 93 e8 1c 	cmp	#1,	&0x1ce8	;r3 As==01
    6c0e:	9d 23       	jnz	$-196    	;abs 0x6b4a

00006c10 <.Loc.271.1>:
    6c10:	16 42 ec 1c 	mov	&0x1cec,r6	;0x1cec
    6c14:	17 42 ee 1c 	mov	&0x1cee,r7	;0x1cee
    6c18:	79 3f       	jmp	$-268    	;abs 0x6b0c

00006c1a <.L162>:
    6c1a:	0c 93       	cmp	#0,	r12	;r3 As==00
    6c1c:	02 20       	jnz	$+6      	;abs 0x6c22
    6c1e:	0d 93       	cmp	#0,	r13	;r3 As==00
    6c20:	b0 23       	jnz	$-158    	;abs 0x6b82

00006c22 <.L153>:
    6c22:	5c 42 f4 1c 	mov.b	&0x1cf4,r12	;0x1cf4
    6c26:	b0 12 d8 64 	call	#25816		;#0x64d8
    6c2a:	b0 12 7e 64 	call	#25726		;#0x647e

00006c2e <.Loc.289.1>:
    6c2e:	5c 42 f4 1c 	mov.b	&0x1cf4,r12	;0x1cf4

00006c32 <.LBB18>:
    6c32:	d2 92 f4 1c 	cmp.b	&0x1cf4,&0x1ce0	;0x1cf4
    6c36:	e0 1c 
    6c38:	8e 24       	jz	$+286    	;abs 0x6d56

00006c3a <.Loc.237.1>:
    6c3a:	c2 9c ea 1c 	cmp.b	r12,	&0x1cea	;
    6c3e:	91 24       	jz	$+292    	;abs 0x6d62

00006c40 <.Loc.237.1>:
    6c40:	6c 43       	mov.b	#2,	r12	;r3 As==10

00006c42 <.Loc.239.1>:
    6c42:	6e 43       	mov.b	#2,	r14	;r3 As==10

00006c44 <.L136>:
    6c44:	0d 4e       	mov	r14,	r13	;
    6c46:	5d 06       	rlam	#2,	r13	;
    6c48:	0d 5e       	add	r14,	r13	;
    6c4a:	5d 02       	rlam	#1,	r13	;
    6c4c:	8d 43 de 1c 	mov	#0,	7390(r13);r3 As==00, 0x1cde

00006c50 <.Loc.241.1>:
    6c50:	4e 43       	clr.b	r14		;
    6c52:	6d 43       	mov.b	#2,	r13	;r3 As==10
    6c54:	b0 12 e0 73 	call	#29664		;#0x73e0

00006c58 <.LBE18>:
    6c58:	1d 42 f6 1c 	mov	&0x1cf6,r13	;0x1cf6
    6c5c:	1c 42 f8 1c 	mov	&0x1cf8,r12	;0x1cf8

00006c60 <.Loc.292.1>:
    6c60:	4e 43       	clr.b	r14		;
    6c62:	0e 9c       	cmp	r12,	r14	;
    6c64:	8e 3b       	jl	$-226    	;abs 0x6b82
    6c66:	0c 93       	cmp	#0,	r12	;r3 As==00
    6c68:	94 23       	jnz	$-214    	;abs 0x6b92
    6c6a:	0d 93       	cmp	#0,	r13	;r3 As==00
    6c6c:	92 27       	jz	$-218    	;abs 0x6b92

00006c6e <.Loc.294.1>:
    6c6e:	0c 99       	cmp	r9,	r12	;
    6c70:	8a 37       	jge	$-234    	;abs 0x6b86

00006c72 <.L154>:
    6c72:	5a 42 f4 1c 	mov.b	&0x1cf4,r10	;0x1cf4

00006c76 <.LVL117>:
    6c76:	08 4d       	mov	r13,	r8	;
    6c78:	8c 3f       	jmp	$-230    	;abs 0x6b92

00006c7a <.L161>:
    6c7a:	0c 93       	cmp	#0,	r12	;r3 As==00
    6c7c:	02 20       	jnz	$+6      	;abs 0x6c82
    6c7e:	0d 93       	cmp	#0,	r13	;r3 As==00
    6c80:	5a 23       	jnz	$-330    	;abs 0x6b36

00006c82 <.L126>:
    6c82:	5c 42 ea 1c 	mov.b	&0x1cea,r12	;0x1cea
    6c86:	b0 12 d8 64 	call	#25816		;#0x64d8
    6c8a:	b0 12 7e 64 	call	#25726		;#0x647e

00006c8e <.LVL120>:
    6c8e:	d2 92 e0 1c 	cmp.b	&0x1ce0,&0x1cea	;0x1ce0
    6c92:	ea 1c 
    6c94:	63 24       	jz	$+200    	;abs 0x6d5c

00006c96 <.Loc.237.1>:
    6c96:	5c 43       	mov.b	#1,	r12	;r3 As==01

00006c98 <.Loc.239.1>:
    6c98:	5e 43       	mov.b	#1,	r14	;r3 As==01

00006c9a <.L131>:
    6c9a:	0d 4e       	mov	r14,	r13	;
    6c9c:	5d 06       	rlam	#2,	r13	;
    6c9e:	0d 5e       	add	r14,	r13	;
    6ca0:	5d 02       	rlam	#1,	r13	;
    6ca2:	8d 43 de 1c 	mov	#0,	7390(r13);r3 As==00, 0x1cde

00006ca6 <.Loc.241.1>:
    6ca6:	4e 43       	clr.b	r14		;
    6ca8:	6d 43       	mov.b	#2,	r13	;r3 As==10
    6caa:	b0 12 e0 73 	call	#29664		;#0x73e0

00006cae <.LVL122>:
    6cae:	1d 42 ec 1c 	mov	&0x1cec,r13	;0x1cec
    6cb2:	1c 42 ee 1c 	mov	&0x1cee,r12	;0x1cee

00006cb6 <.Loc.292.1>:
    6cb6:	4e 43       	clr.b	r14		;
    6cb8:	0e 9c       	cmp	r12,	r14	;
    6cba:	3d 3b       	jl	$-388    	;abs 0x6b36
    6cbc:	0c 93       	cmp	#0,	r12	;r3 As==00
    6cbe:	45 23       	jnz	$-372    	;abs 0x6b4a
    6cc0:	0d 93       	cmp	#0,	r13	;r3 As==00
    6cc2:	43 27       	jz	$-376    	;abs 0x6b4a

00006cc4 <.Loc.294.1>:
    6cc4:	0c 99       	cmp	r9,	r12	;
    6cc6:	3d 3b       	jl	$-388    	;abs 0x6b42
    6cc8:	38 3f       	jmp	$-398    	;abs 0x6b3a

00006cca <.L164>:
    6cca:	0c 93       	cmp	#0,	r12	;r3 As==00
    6ccc:	02 20       	jnz	$+6      	;abs 0x6cd2
    6cce:	0d 93       	cmp	#0,	r13	;r3 As==00
    6cd0:	88 23       	jnz	$-238    	;abs 0x6be2

00006cd2 <.L112>:
    6cd2:	5c 42 e0 1c 	mov.b	&0x1ce0,r12	;0x1ce0
    6cd6:	b0 12 d8 64 	call	#25816		;#0x64d8
    6cda:	b0 12 7e 64 	call	#25726		;#0x647e

00006cde <.LVL125>:
    6cde:	82 43 de 1c 	mov	#0,	&0x1cde	;r3 As==00

00006ce2 <.Loc.241.1>:
    6ce2:	4e 43       	clr.b	r14		;
    6ce4:	6d 43       	mov.b	#2,	r13	;r3 As==10
    6ce6:	4c 43       	clr.b	r12		;
    6ce8:	b0 12 e0 73 	call	#29664		;#0x73e0

00006cec <.LVL126>:
    6cec:	1d 42 e2 1c 	mov	&0x1ce2,r13	;0x1ce2
    6cf0:	1c 42 e4 1c 	mov	&0x1ce4,r12	;0x1ce4

00006cf4 <.Loc.292.1>:
    6cf4:	4e 43       	clr.b	r14		;
    6cf6:	0e 9c       	cmp	r12,	r14	;
    6cf8:	74 3b       	jl	$-278    	;abs 0x6be2
    6cfa:	0c 93       	cmp	#0,	r12	;r3 As==00
    6cfc:	86 23       	jnz	$-242    	;abs 0x6c0a
    6cfe:	0d 93       	cmp	#0,	r13	;r3 As==00
    6d00:	84 27       	jz	$-246    	;abs 0x6c0a

00006d02 <.Loc.294.1>:
    6d02:	0c 99       	cmp	r9,	r12	;
    6d04:	70 3b       	jl	$-286    	;abs 0x6be6
    6d06:	7b 3f       	jmp	$-264    	;abs 0x6bfe

00006d08 <.L128>:
    6d08:	08 9d       	cmp	r13,	r8	;
    6d0a:	1f 23       	jnz	$-448    	;abs 0x6b4a
    6d0c:	09 9c       	cmp	r12,	r9	;
    6d0e:	1d 23       	jnz	$-452    	;abs 0x6b4a

00006d10 <.Loc.294.1>:
    6d10:	5e 42 ea 1c 	mov.b	&0x1cea,r14	;0x1cea

00006d14 <.Loc.294.1>:
    6d14:	5a 92 ea 1c 	cmp.b	&0x1cea,r10	;0x1cea
    6d18:	18 2f       	jc	$-462    	;abs 0x6b4a
    6d1a:	0a 4e       	mov	r14,	r10	;

00006d1c <.LVL128>:
    6d1c:	14 3f       	jmp	$-470    	;abs 0x6b46

00006d1e <.L143>:
    6d1e:	16 42 f6 1c 	mov	&0x1cf6,r6	;0x1cf6
    6d22:	17 42 f8 1c 	mov	&0x1cf8,r7	;0x1cf8

00006d26 <.LVL130>:
    6d26:	5a 42 f4 1c 	mov.b	&0x1cf4,r10	;0x1cf4

00006d2a <.LVL131>:
    6d2a:	08 46       	mov	r6,	r8	;
    6d2c:	09 47       	mov	r7,	r9	;
    6d2e:	14 3f       	jmp	$-470    	;abs 0x6b58

00006d30 <.L166>:
    6d30:	0c 99       	cmp	r9,	r12	;
    6d32:	6b 23       	jnz	$-296    	;abs 0x6c0a

00006d34 <.Loc.294.1>:
    6d34:	5e 42 e0 1c 	mov.b	&0x1ce0,r14	;0x1ce0

00006d38 <.Loc.294.1>:
    6d38:	5a 92 e0 1c 	cmp.b	&0x1ce0,r10	;0x1ce0
    6d3c:	66 2f       	jc	$-306    	;abs 0x6c0a
    6d3e:	0a 4e       	mov	r14,	r10	;

00006d40 <.LVL133>:
    6d40:	54 3f       	jmp	$-342    	;abs 0x6bea

00006d42 <.L163>:
    6d42:	09 9c       	cmp	r12,	r9	;
    6d44:	26 23       	jnz	$-434    	;abs 0x6b92

00006d46 <.Loc.294.1>:
    6d46:	5c 42 f4 1c 	mov.b	&0x1cf4,r12	;0x1cf4

00006d4a <.Loc.294.1>:
    6d4a:	5a 92 f4 1c 	cmp.b	&0x1cf4,r10	;0x1cf4
    6d4e:	21 2f       	jc	$-444    	;abs 0x6b92
    6d50:	0a 4c       	mov	r12,	r10	;

00006d52 <.LVL135>:
    6d52:	08 4d       	mov	r13,	r8	;
    6d54:	1e 3f       	jmp	$-450    	;abs 0x6b92

00006d56 <.L149>:
    6d56:	4c 43       	clr.b	r12		;

00006d58 <.Loc.239.1>:
    6d58:	4e 43       	clr.b	r14		;
    6d5a:	74 3f       	jmp	$-278    	;abs 0x6c44

00006d5c <.L169>:
    6d5c:	4c 43       	clr.b	r12		;

00006d5e <.Loc.239.1>:
    6d5e:	4e 43       	clr.b	r14		;
    6d60:	9c 3f       	jmp	$-198    	;abs 0x6c9a

00006d62 <.L167>:
    6d62:	5c 43       	mov.b	#1,	r12	;r3 As==01

00006d64 <.Loc.239.1>:
    6d64:	5e 43       	mov.b	#1,	r14	;r3 As==01
    6d66:	6e 3f       	jmp	$-290    	;abs 0x6c44

00006d68 <set_expire_timer>:
    6d68:	5a 15       	pushm	#6,	r10	;16-bit words

00006d6a <.LCFI31>:
    6d6a:	31 80 0a 00 	sub	#10,	r1	;#0x000a

00006d6e <.LCFI32>:
    6d6e:	47 4c       	mov.b	r12,	r7	;
    6d70:	08 4d       	mov	r13,	r8	;
    6d72:	06 4e       	mov	r14,	r6	;

00006d74 <.LBB26>:
    6d74:	45 43       	clr.b	r5		;
    6d76:	39 40 de 1c 	mov	#7390,	r9	;#0x1cde

00006d7a <.L172>:
    6d7a:	0a 45       	mov	r5,	r10	;
    6d7c:	5a 06       	rlam	#2,	r10	;
    6d7e:	0a 55       	add	r5,	r10	;
    6d80:	5a 02       	rlam	#1,	r10	;
    6d82:	0a 59       	add	r9,	r10	;
    6d84:	6e 43       	mov.b	#2,	r14	;r3 As==10
    6d86:	4d 45       	mov.b	r5,	r13	;
    6d88:	0c 41       	mov	r1,	r12	;
    6d8a:	b0 12 dc 75 	call	#30172		;#0x75dc
    6d8e:	aa 41 00 00 	mov	@r1,	0(r10)	;
    6d92:	9a 41 02 00 	mov	2(r1),	2(r10)	;
    6d96:	02 00 
    6d98:	9a 41 04 00 	mov	4(r1),	4(r10)	;
    6d9c:	04 00 
    6d9e:	9a 41 06 00 	mov	6(r1),	6(r10)	;
    6da2:	06 00 
    6da4:	9a 41 08 00 	mov	8(r1),	8(r10)	;
    6da8:	08 00 

00006daa <.LVL143>:
    6daa:	15 53       	inc	r5		;

00006dac <.Loc.252.1>:
    6dac:	35 90 03 00 	cmp	#3,	r5	;
    6db0:	e4 23       	jnz	$-54     	;abs 0x6d7a

00006db2 <.Loc.324.1>:
    6db2:	82 93 de 1c 	cmp	#0,	&0x1cde	;r3 As==00
    6db6:	1d 24       	jz	$+60     	;abs 0x6df2

00006db8 <.Loc.324.1>:
    6db8:	82 93 e8 1c 	cmp	#0,	&0x1ce8	;r3 As==00
    6dbc:	4e 24       	jz	$+158    	;abs 0x6e5a

00006dbe <.Loc.324.1>:
    6dbe:	82 93 f2 1c 	cmp	#0,	&0x1cf2	;r3 As==00
    6dc2:	4e 24       	jz	$+158    	;abs 0x6e60

00006dc4 <.Loc.324.1>:
    6dc4:	0e 48       	mov	r8,	r14	;
    6dc6:	0f 46       	mov	r6,	r15	;
    6dc8:	6d 43       	mov.b	#2,	r13	;r3 As==10
    6dca:	6c 43       	mov.b	#2,	r12	;r3 As==10
    6dcc:	b0 12 40 73 	call	#29504		;#0x7340

00006dd0 <.Loc.348.1>:
    6dd0:	4e 47       	mov.b	r7,	r14	;
    6dd2:	6d 43       	mov.b	#2,	r13	;r3 As==10
    6dd4:	6c 43       	mov.b	#2,	r12	;r3 As==10
    6dd6:	b0 12 94 73 	call	#29588		;#0x7394

00006dda <.Loc.349.1>:
    6dda:	b0 12 e0 6a 	call	#27360		;#0x6ae0

00006dde <.Loc.352.1>:
    6dde:	6c 43       	mov.b	#2,	r12	;r3 As==10
    6de0:	b0 12 44 74 	call	#29764		;#0x7444

00006de4 <.Loc.353.1>:
    6de4:	6c 43       	mov.b	#2,	r12	;r3 As==10
    6de6:	b0 12 98 75 	call	#30104		;#0x7598

00006dea <.Loc.354.1>:
    6dea:	31 50 0a 00 	add	#10,	r1	;#0x000a

00006dee <.LCFI33>:
    6dee:	55 17       	popm	#6,	r10	;16-bit words

00006df0 <.LCFI34>:
    6df0:	30 41       	ret			

00006df2 <.L175>:
    6df2:	1a 42 de 1c 	mov	&0x1cde,r10	;0x1cde

00006df6 <.Loc.326.1>:
    6df6:	05 4a       	mov	r10,	r5	;

00006df8 <.L173>:
    6df8:	b0 12 dc 72 	call	#29404		;#0x72dc

00006dfc <.Loc.328.1>:
    6dfc:	0e 45       	mov	r5,	r14	;
    6dfe:	5e 06       	rlam	#2,	r14	;
    6e00:	0e 55       	add	r5,	r14	;
    6e02:	5e 02       	rlam	#1,	r14	;
    6e04:	09 5e       	add	r14,	r9	;

00006e06 <.Loc.328.1>:
    6e06:	0c 58       	add	r8,	r12	;
    6e08:	89 4c 04 00 	mov	r12,	4(r9)	;
    6e0c:	0d 66       	addc	r6,	r13	;
    6e0e:	89 4d 06 00 	mov	r13,	6(r9)	;

00006e12 <.Loc.329.1>:
    6e12:	b0 12 dc 72 	call	#29404		;#0x72dc

00006e16 <.Loc.329.1>:
    6e16:	0e 4c       	mov	r12,	r14	;
    6e18:	0e 58       	add	r8,	r14	;
    6e1a:	0f 4d       	mov	r13,	r15	;
    6e1c:	0f 66       	addc	r6,	r15	;
    6e1e:	6d 43       	mov.b	#2,	r13	;r3 As==10
    6e20:	4c 4a       	mov.b	r10,	r12	;
    6e22:	b0 12 40 73 	call	#29504		;#0x7340

00006e26 <.Loc.330.1>:
    6e26:	c9 47 02 00 	mov.b	r7,	2(r9)	;

00006e2a <.Loc.331.1>:
    6e2a:	4e 47       	mov.b	r7,	r14	;
    6e2c:	6d 43       	mov.b	#2,	r13	;r3 As==10
    6e2e:	4c 4a       	mov.b	r10,	r12	;
    6e30:	b0 12 94 73 	call	#29588		;#0x7394

00006e34 <.Loc.332.1>:
    6e34:	99 43 00 00 	mov	#1,	0(r9)	;r3 As==01

00006e38 <.Loc.333.1>:
    6e38:	5e 43       	mov.b	#1,	r14	;r3 As==01
    6e3a:	6d 43       	mov.b	#2,	r13	;r3 As==10
    6e3c:	4c 4a       	mov.b	r10,	r12	;
    6e3e:	b0 12 e0 73 	call	#29664		;#0x73e0

00006e42 <.Loc.334.1>:
    6e42:	b0 12 e0 6a 	call	#27360		;#0x6ae0

00006e46 <.Loc.352.1>:
    6e46:	6c 43       	mov.b	#2,	r12	;r3 As==10
    6e48:	b0 12 44 74 	call	#29764		;#0x7444

00006e4c <.Loc.353.1>:
    6e4c:	6c 43       	mov.b	#2,	r12	;r3 As==10
    6e4e:	b0 12 98 75 	call	#30104		;#0x7598

00006e52 <.Loc.354.1>:
    6e52:	31 50 0a 00 	add	#10,	r1	;#0x000a

00006e56 <.LCFI36>:
    6e56:	55 17       	popm	#6,	r10	;16-bit words

00006e58 <.LCFI37>:
    6e58:	30 41       	ret			

00006e5a <.L176>:
    6e5a:	5a 43       	mov.b	#1,	r10	;r3 As==01

00006e5c <.Loc.326.1>:
    6e5c:	55 43       	mov.b	#1,	r5	;r3 As==01
    6e5e:	cc 3f       	jmp	$-102    	;abs 0x6df8

00006e60 <.L177>:
    6e60:	6a 43       	mov.b	#2,	r10	;r3 As==10

00006e62 <.Loc.326.1>:
    6e62:	65 43       	mov.b	#2,	r5	;r3 As==10
    6e64:	c9 3f       	jmp	$-108    	;abs 0x6df8

00006e66 <stop_expire_timer>:
    6e66:	3a 15       	pushm	#4,	r10	;16-bit words

00006e68 <.LCFI39>:
    6e68:	31 80 0a 00 	sub	#10,	r1	;#0x000a

00006e6c <.LCFI40>:
    6e6c:	47 4c       	mov.b	r12,	r7	;

00006e6e <.LBB34>:
    6e6e:	49 43       	clr.b	r9		;
    6e70:	38 40 de 1c 	mov	#7390,	r8	;#0x1cde

00006e74 <.L180>:
    6e74:	0a 49       	mov	r9,	r10	;
    6e76:	5a 06       	rlam	#2,	r10	;
    6e78:	0a 59       	add	r9,	r10	;
    6e7a:	5a 02       	rlam	#1,	r10	;
    6e7c:	0a 58       	add	r8,	r10	;
    6e7e:	6e 43       	mov.b	#2,	r14	;r3 As==10
    6e80:	4d 49       	mov.b	r9,	r13	;
    6e82:	0c 41       	mov	r1,	r12	;
    6e84:	b0 12 dc 75 	call	#30172		;#0x75dc
    6e88:	aa 41 00 00 	mov	@r1,	0(r10)	;
    6e8c:	9a 41 02 00 	mov	2(r1),	2(r10)	;
    6e90:	02 00 
    6e92:	9a 41 04 00 	mov	4(r1),	4(r10)	;
    6e96:	04 00 
    6e98:	9a 41 06 00 	mov	6(r1),	6(r10)	;
    6e9c:	06 00 
    6e9e:	9a 41 08 00 	mov	8(r1),	8(r10)	;
    6ea2:	08 00 

00006ea4 <.LVL170>:
    6ea4:	19 53       	inc	r9		;

00006ea6 <.Loc.252.1>:
    6ea6:	39 90 03 00 	cmp	#3,	r9	;
    6eaa:	e4 23       	jnz	$-54     	;abs 0x6e74

00006eac <.LBB38>:
    6eac:	c2 97 e0 1c 	cmp.b	r7,	&0x1ce0	;
    6eb0:	12 24       	jz	$+38     	;abs 0x6ed6

00006eb2 <.Loc.237.1>:
    6eb2:	c2 97 ea 1c 	cmp.b	r7,	&0x1cea	;
    6eb6:	27 24       	jz	$+80     	;abs 0x6f06

00006eb8 <.Loc.237.1>:
    6eb8:	c2 97 f4 1c 	cmp.b	r7,	&0x1cf4	;
    6ebc:	27 24       	jz	$+80     	;abs 0x6f0c

00006ebe <.LBE38>:
    6ebe:	b0 12 e0 6a 	call	#27360		;#0x6ae0

00006ec2 <.Loc.368.1>:
    6ec2:	6c 43       	mov.b	#2,	r12	;r3 As==10
    6ec4:	b0 12 44 74 	call	#29764		;#0x7444

00006ec8 <.Loc.369.1>:
    6ec8:	6c 43       	mov.b	#2,	r12	;r3 As==10
    6eca:	b0 12 98 75 	call	#30104		;#0x7598

00006ece <.Loc.371.1>:
    6ece:	31 50 0a 00 	add	#10,	r1	;#0x000a

00006ed2 <.LCFI41>:
    6ed2:	37 17       	popm	#4,	r10	;16-bit words

00006ed4 <.LCFI42>:
    6ed4:	30 41       	ret			

00006ed6 <.L183>:
    6ed6:	4c 43       	clr.b	r12		;

00006ed8 <.Loc.239.1>:
    6ed8:	4e 43       	clr.b	r14		;

00006eda <.L181>:
    6eda:	0d 4e       	mov	r14,	r13	;
    6edc:	5d 06       	rlam	#2,	r13	;
    6ede:	0d 5e       	add	r14,	r13	;
    6ee0:	5d 02       	rlam	#1,	r13	;
    6ee2:	8d 43 de 1c 	mov	#0,	7390(r13);r3 As==00, 0x1cde

00006ee6 <.Loc.241.1>:
    6ee6:	4e 43       	clr.b	r14		;
    6ee8:	6d 43       	mov.b	#2,	r13	;r3 As==10
    6eea:	b0 12 e0 73 	call	#29664		;#0x73e0

00006eee <.Loc.242.1>:
    6eee:	b0 12 e0 6a 	call	#27360		;#0x6ae0

00006ef2 <.Loc.368.1>:
    6ef2:	6c 43       	mov.b	#2,	r12	;r3 As==10
    6ef4:	b0 12 44 74 	call	#29764		;#0x7444

00006ef8 <.Loc.369.1>:
    6ef8:	6c 43       	mov.b	#2,	r12	;r3 As==10
    6efa:	b0 12 98 75 	call	#30104		;#0x7598

00006efe <.Loc.371.1>:
    6efe:	31 50 0a 00 	add	#10,	r1	;#0x000a

00006f02 <.LCFI44>:
    6f02:	37 17       	popm	#4,	r10	;16-bit words

00006f04 <.LCFI45>:
    6f04:	30 41       	ret			

00006f06 <.L184>:
    6f06:	5c 43       	mov.b	#1,	r12	;r3 As==01

00006f08 <.Loc.239.1>:
    6f08:	5e 43       	mov.b	#1,	r14	;r3 As==01
    6f0a:	e7 3f       	jmp	$-48     	;abs 0x6eda

00006f0c <.L186>:
    6f0c:	6c 43       	mov.b	#2,	r12	;r3 As==10

00006f0e <.Loc.239.1>:
    6f0e:	6e 43       	mov.b	#2,	r14	;r3 As==10
    6f10:	e4 3f       	jmp	$-54     	;abs 0x6eda

00006f12 <unpack_pdc_to_local>:
    6f12:	31 80 0a 00 	sub	#10,	r1	;#0x000a

00006f16 <.LCFI47>:
    6f16:	5e 43       	mov.b	#1,	r14	;r3 As==01
    6f18:	4d 43       	clr.b	r13		;
    6f1a:	0c 41       	mov	r1,	r12	;
    6f1c:	b0 12 dc 75 	call	#30172		;#0x75dc
    6f20:	a2 41 d4 1c 	mov	@r1,	&0x1cd4	;
    6f24:	92 41 02 00 	mov	2(r1),	&0x1cd6	;
    6f28:	d6 1c 
    6f2a:	92 41 04 00 	mov	4(r1),	&0x1cd8	;
    6f2e:	d8 1c 
    6f30:	92 41 06 00 	mov	6(r1),	&0x1cda	;
    6f34:	da 1c 
    6f36:	92 41 08 00 	mov	8(r1),	&0x1cdc	;
    6f3a:	dc 1c 

00006f3c <.Loc.383.1>:
    6f3c:	31 50 0a 00 	add	#10,	r1	;#0x000a

00006f40 <.LCFI48>:
    6f40:	30 41       	ret			

00006f42 <refresh_pdc_timers>:
    6f42:	2a 15       	pushm	#3,	r10	;16-bit words

00006f44 <.LCFI49>:
    6f44:	92 93 d4 1c 	cmp	#1,	&0x1cd4	;r3 As==01
    6f48:	8a 20       	jnz	$+278    	;abs 0x705e

00006f4a <.Loc.463.1>:
    6f4a:	18 42 d8 1c 	mov	&0x1cd8,r8	;0x1cd8
    6f4e:	19 42 da 1c 	mov	&0x1cda,r9	;0x1cda

00006f52 <.Loc.465.1>:
    6f52:	82 48 1a 1d 	mov	r8,	&0x1d1a	;

00006f56 <.Loc.466.1>:
    6f56:	d2 42 d6 1c 	mov.b	&0x1cd6,&0x1d1c	;0x1cd6
    6f5a:	1c 1d 

00006f5c <.Loc.467.1>:
    6f5c:	b0 12 dc 72 	call	#29404		;#0x72dc

00006f60 <.Loc.471.1>:
    6f60:	0e 48       	mov	r8,	r14	;
    6f62:	0f 49       	mov	r9,	r15	;
    6f64:	0e 8c       	sub	r12,	r14	;
    6f66:	0f 7d       	subc	r13,	r15	;

00006f68 <.Loc.471.1>:
    6f68:	82 4e d8 1c 	mov	r14,	&0x1cd8	;
    6f6c:	82 4f da 1c 	mov	r15,	&0x1cda	;

00006f70 <.Loc.472.1>:
    6f70:	5d 43       	mov.b	#1,	r13	;r3 As==01
    6f72:	4c 43       	clr.b	r12		;
    6f74:	b0 12 40 73 	call	#29504		;#0x7340

00006f78 <.Loc.474.1>:
    6f78:	1c 42 d8 1c 	mov	&0x1cd8,r12	;0x1cd8
    6f7c:	1d 42 da 1c 	mov	&0x1cda,r13	;0x1cda

00006f80 <.Loc.474.1>:
    6f80:	0d 93       	cmp	#0,	r13	;r3 As==00
    6f82:	21 38       	jl	$+68     	;abs 0x6fc6

00006f84 <.Loc.481.1>:
    6f84:	0f 4c       	mov	r12,	r15	;
    6f86:	0f dd       	bis	r13,	r15	;
    6f88:	0f 93       	cmp	#0,	r15	;r3 As==00
    6f8a:	6d 24       	jz	$+220    	;abs 0x7066

00006f8c <.Loc.485.1>:
    6f8c:	1f 42 1a 1d 	mov	&0x1d1a,r15	;0x1d1a
    6f90:	08 4f       	mov	r15,	r8	;
    6f92:	09 43       	clr	r9		;

00006f94 <.Loc.485.1>:
    6f94:	0d 93       	cmp	#0,	r13	;r3 As==00
    6f96:	54 38       	jl	$+170    	;abs 0x7040
    6f98:	0d 93       	cmp	#0,	r13	;r3 As==00
    6f9a:	02 20       	jnz	$+6      	;abs 0x6fa0
    6f9c:	0c 98       	cmp	r8,	r12	;
    6f9e:	50 28       	jnc	$+162    	;abs 0x7040

00006fa0 <.L209>:
    6fa0:	5e 42 1c 1d 	mov.b	&0x1d1c,r14	;0x1d1c

00006fa4 <.Loc.485.1>:
    6fa4:	0c 98       	cmp	r8,	r12	;
    6fa6:	53 24       	jz	$+168    	;abs 0x704e

00006fa8 <.L197>:
    6fa8:	4d 4e       	mov.b	r14,	r13	;
    6faa:	5c 43       	mov.b	#1,	r12	;r3 As==01
    6fac:	b0 12 28 74 	call	#29736		;#0x7428

00006fb0 <.Loc.497.1>:
    6fb0:	1d 42 1a 1d 	mov	&0x1d1a,r13	;0x1d1a
    6fb4:	5c 43       	mov.b	#1,	r12	;r3 As==01
    6fb6:	b0 12 36 74 	call	#29750		;#0x7436

00006fba <.Loc.500.1>:
    6fba:	1c 42 1a 1d 	mov	&0x1d1a,r12	;0x1d1a
    6fbe:	b0 12 84 72 	call	#29316		;#0x7284

00006fc2 <.Loc.507.1>:
    6fc2:	28 17       	popm	#3,	r10	;16-bit words

00006fc4 <.LCFI50>:
    6fc4:	30 41       	ret			

00006fc6 <.L210>:
    6fc6:	59 42 25 1d 	mov.b	&0x1d25,r9	;0x1d25
    6fca:	0f 43       	clr	r15		;
    6fcc:	0f 89       	sub	r9,	r15	;
    6fce:	08 4f       	mov	r15,	r8	;
    6fd0:	09 4f       	mov	r15,	r9	;
    6fd2:	4e 18 09 11 	rpt #15 { rrax.w	r9		;

00006fd6 <.Loc.474.1>:
    6fd6:	09 9d       	cmp	r13,	r9	;
    6fd8:	04 38       	jl	$+10     	;abs 0x6fe2

00006fda <.Loc.474.1>:
    6fda:	0d 99       	cmp	r9,	r13	;
    6fdc:	25 20       	jnz	$+76     	;abs 0x7028
    6fde:	0f 9c       	cmp	r12,	r15	;
    6fe0:	23 2c       	jc	$+72     	;abs 0x7028

00006fe2 <.L206>:
    6fe2:	1e 42 1a 1d 	mov	&0x1d1a,r14	;0x1d1a
    6fe6:	0a 4e       	mov	r14,	r10	;
    6fe8:	0b 43       	clr	r11		;

00006fea <.Loc.476.1>:
    6fea:	48 43       	clr.b	r8		;
    6fec:	49 43       	clr.b	r9		;
    6fee:	08 8c       	sub	r12,	r8	;
    6ff0:	09 7d       	subc	r13,	r9	;

00006ff2 <.Loc.476.1>:
    6ff2:	09 93       	cmp	#0,	r9	;r3 As==00
    6ff4:	04 38       	jl	$+10     	;abs 0x6ffe
    6ff6:	09 93       	cmp	#0,	r9	;r3 As==00
    6ff8:	0b 20       	jnz	$+24     	;abs 0x7010
    6ffa:	08 9a       	cmp	r10,	r8	;
    6ffc:	09 2c       	jc	$+20     	;abs 0x7010

00006ffe <.L207>:
    6ffe:	5e 42 d6 1c 	mov.b	&0x1cd6,r14	;0x1cd6

00007002 <.L196>:
    7002:	4f 43       	clr.b	r15		;
    7004:	0f 8c       	sub	r12,	r15	;
    7006:	82 4f 1a 1d 	mov	r15,	&0x1d1a	;

0000700a <.Loc.479.1>:
    700a:	c2 4e 1c 1d 	mov.b	r14,	&0x1d1c	;

0000700e <.Loc.494.1>:
    700e:	cc 3f       	jmp	$-102    	;abs 0x6fa8

00007010 <.L194>:
    7010:	5e 42 1c 1d 	mov.b	&0x1d1c,r14	;0x1d1c

00007014 <.Loc.476.1>:
    7014:	0a 98       	cmp	r8,	r10	;
    7016:	c8 23       	jnz	$-110    	;abs 0x6fa8
    7018:	09 93       	cmp	#0,	r9	;r3 As==00
    701a:	c6 23       	jnz	$-114    	;abs 0x6fa8

0000701c <.Loc.476.1>:
    701c:	5f 42 d6 1c 	mov.b	&0x1cd6,r15	;0x1cd6

00007020 <.Loc.476.1>:
    7020:	4f 9e       	cmp.b	r14,	r15	;
    7022:	c2 2f       	jc	$-122    	;abs 0x6fa8
    7024:	0e 4f       	mov	r15,	r14	;
    7026:	ed 3f       	jmp	$-36     	;abs 0x7002

00007028 <.L192>:
    7028:	5e 42 1c 1d 	mov.b	&0x1d1c,r14	;0x1d1c

0000702c <.Loc.481.1>:
    702c:	0d 99       	cmp	r9,	r13	;
    702e:	05 38       	jl	$+12     	;abs 0x703a
    7030:	0a 49       	mov	r9,	r10	;
    7032:	09 9d       	cmp	r13,	r9	;
    7034:	b9 23       	jnz	$-140    	;abs 0x6fa8
    7036:	0c 9f       	cmp	r15,	r12	;
    7038:	b7 2f       	jc	$-144    	;abs 0x6fa8

0000703a <.L208>:
    703a:	82 43 d4 1c 	mov	#0,	&0x1cd4	;r3 As==00

0000703e <.Loc.494.1>:
    703e:	b4 3f       	jmp	$-150    	;abs 0x6fa8

00007040 <.L201>:
    7040:	5e 42 d6 1c 	mov.b	&0x1cd6,r14	;0x1cd6

00007044 <.L203>:
    7044:	82 4c 1a 1d 	mov	r12,	&0x1d1a	;

00007048 <.Loc.488.1>:
    7048:	c2 4e 1c 1d 	mov.b	r14,	&0x1d1c	;

0000704c <.Loc.494.1>:
    704c:	ad 3f       	jmp	$-164    	;abs 0x6fa8

0000704e <.L211>:
    704e:	0d 99       	cmp	r9,	r13	;
    7050:	ab 23       	jnz	$-168    	;abs 0x6fa8

00007052 <.Loc.485.1>:
    7052:	5f 42 d6 1c 	mov.b	&0x1cd6,r15	;0x1cd6

00007056 <.Loc.485.1>:
    7056:	4f 9e       	cmp.b	r14,	r15	;
    7058:	a7 2f       	jc	$-176    	;abs 0x6fa8
    705a:	0e 4f       	mov	r15,	r14	;
    705c:	f3 3f       	jmp	$-24     	;abs 0x7044

0000705e <.L189>:
    705e:	b0 12 3a 72 	call	#29242		;#0x723a

00007062 <.Loc.507.1>:
    7062:	28 17       	popm	#3,	r10	;16-bit words

00007064 <.LCFI52>:
    7064:	30 41       	ret			

00007066 <.L199>:
    7066:	5e 42 1c 1d 	mov.b	&0x1d1c,r14	;0x1d1c
    706a:	9e 3f       	jmp	$-194    	;abs 0x6fa8

0000706c <set_periodic_timer>:
    706c:	1a 15       	pushm	#2,	r10	;16-bit words

0000706e <.LCFI54>:
    706e:	17 15       	pushm	#2,	r7	;16-bit words

00007070 <.LCFI55>:
    7070:	31 80 0a 00 	sub	#10,	r1	;#0x000a

00007074 <.LCFI56>:
    7074:	49 4c       	mov.b	r12,	r9	;
    7076:	0a 4d       	mov	r13,	r10	;

00007078 <.LBB44>:
    7078:	5e 43       	mov.b	#1,	r14	;r3 As==01
    707a:	4d 43       	clr.b	r13		;

0000707c <.LVL210>:
    707c:	0c 41       	mov	r1,	r12	;

0000707e <.LVL211>:
    707e:	b0 12 dc 75 	call	#30172		;#0x75dc
    7082:	a2 41 d4 1c 	mov	@r1,	&0x1cd4	;
    7086:	92 41 02 00 	mov	2(r1),	&0x1cd6	;
    708a:	d6 1c 
    708c:	92 41 04 00 	mov	4(r1),	&0x1cd8	;
    7090:	d8 1c 
    7092:	92 41 06 00 	mov	6(r1),	&0x1cda	;
    7096:	da 1c 
    7098:	92 41 08 00 	mov	8(r1),	&0x1cdc	;
    709c:	dc 1c 

0000709e <.LBE44>:
    709e:	06 4a       	mov	r10,	r6	;
    70a0:	07 43       	clr	r7		;

000070a2 <.Loc.401.1>:
    70a2:	82 93 d4 1c 	cmp	#0,	&0x1cd4	;r3 As==00
    70a6:	31 20       	jnz	$+100    	;abs 0x710a

000070a8 <.Loc.403.1>:
    70a8:	4c 49       	mov.b	r9,	r12	;
    70aa:	b0 12 d8 64 	call	#25816		;#0x64d8
    70ae:	0d 4a       	mov	r10,	r13	;
    70b0:	b0 12 a4 64 	call	#25764		;#0x64a4

000070b4 <.Loc.404.1>:
    70b4:	4c 49       	mov.b	r9,	r12	;
    70b6:	b0 12 d8 64 	call	#25816		;#0x64d8
    70ba:	5d 43       	mov.b	#1,	r13	;r3 As==01
    70bc:	b0 12 aa 64 	call	#25770		;#0x64aa

000070c0 <.Loc.405.1>:
    70c0:	0e 46       	mov	r6,	r14	;
    70c2:	0f 47       	mov	r7,	r15	;
    70c4:	5d 43       	mov.b	#1,	r13	;r3 As==01
    70c6:	4c 43       	clr.b	r12		;
    70c8:	b0 12 40 73 	call	#29504		;#0x7340

000070cc <.Loc.406.1>:
    70cc:	82 46 d8 1c 	mov	r6,	&0x1cd8	;
    70d0:	82 47 da 1c 	mov	r7,	&0x1cda	;

000070d4 <.Loc.407.1>:
    70d4:	4e 49       	mov.b	r9,	r14	;
    70d6:	5d 43       	mov.b	#1,	r13	;r3 As==01
    70d8:	4c 43       	clr.b	r12		;
    70da:	b0 12 94 73 	call	#29588		;#0x7394

000070de <.Loc.408.1>:
    70de:	c2 49 d6 1c 	mov.b	r9,	&0x1cd6	;

000070e2 <.Loc.409.1>:
    70e2:	5e 43       	mov.b	#1,	r14	;r3 As==01
    70e4:	5d 43       	mov.b	#1,	r13	;r3 As==01
    70e6:	4c 43       	clr.b	r12		;
    70e8:	b0 12 e0 73 	call	#29664		;#0x73e0

000070ec <.Loc.410.1>:
    70ec:	92 43 d4 1c 	mov	#1,	&0x1cd4	;r3 As==01

000070f0 <.Loc.411.1>:
    70f0:	b0 12 42 6f 	call	#28482		;#0x6f42

000070f4 <.Loc.433.1>:
    70f4:	5c 43       	mov.b	#1,	r12	;r3 As==01
    70f6:	b0 12 44 74 	call	#29764		;#0x7444

000070fa <.Loc.434.1>:
    70fa:	5c 43       	mov.b	#1,	r12	;r3 As==01
    70fc:	b0 12 98 75 	call	#30104		;#0x7598

00007100 <.Loc.435.1>:
    7100:	31 50 0a 00 	add	#10,	r1	;#0x000a

00007104 <.LCFI57>:
    7104:	16 17       	popm	#2,	r7	;16-bit words

00007106 <.LCFI58>:
    7106:	19 17       	popm	#2,	r10	;16-bit words

00007108 <.LCFI59>:
    7108:	30 41       	ret			

0000710a <.L213>:
    710a:	82 46 d8 1c 	mov	r6,	&0x1cd8	;
    710e:	82 47 da 1c 	mov	r7,	&0x1cda	;

00007112 <.Loc.426.1>:
    7112:	0e 46       	mov	r6,	r14	;
    7114:	0f 47       	mov	r7,	r15	;
    7116:	5d 43       	mov.b	#1,	r13	;r3 As==01
    7118:	4c 43       	clr.b	r12		;
    711a:	b0 12 40 73 	call	#29504		;#0x7340

0000711e <.Loc.427.1>:
    711e:	c2 49 d6 1c 	mov.b	r9,	&0x1cd6	;

00007122 <.Loc.428.1>:
    7122:	4e 49       	mov.b	r9,	r14	;
    7124:	5d 43       	mov.b	#1,	r13	;r3 As==01
    7126:	4c 43       	clr.b	r12		;
    7128:	b0 12 94 73 	call	#29588		;#0x7394

0000712c <.Loc.430.1>:
    712c:	b0 12 42 6f 	call	#28482		;#0x6f42

00007130 <.Loc.433.1>:
    7130:	5c 43       	mov.b	#1,	r12	;r3 As==01
    7132:	b0 12 44 74 	call	#29764		;#0x7444

00007136 <.Loc.434.1>:
    7136:	5c 43       	mov.b	#1,	r12	;r3 As==01
    7138:	b0 12 98 75 	call	#30104		;#0x7598

0000713c <.Loc.435.1>:
    713c:	31 50 0a 00 	add	#10,	r1	;#0x000a

00007140 <.LCFI61>:
    7140:	16 17       	popm	#2,	r7	;16-bit words

00007142 <.LCFI62>:
    7142:	19 17       	popm	#2,	r10	;16-bit words

00007144 <.LCFI63>:
    7144:	30 41       	ret			

00007146 <stop_periodic_timer>:
    7146:	0a 15       	pushm	#1,	r10	;16-bit words

00007148 <.LCFI64>:
    7148:	31 80 0a 00 	sub	#10,	r1	;#0x000a

0000714c <.LCFI65>:
    714c:	4a 4c       	mov.b	r12,	r10	;

0000714e <.LBB50>:
    714e:	5e 43       	mov.b	#1,	r14	;r3 As==01
    7150:	4d 43       	clr.b	r13		;
    7152:	0c 41       	mov	r1,	r12	;

00007154 <.LVL233>:
    7154:	b0 12 dc 75 	call	#30172		;#0x75dc
    7158:	a2 41 d4 1c 	mov	@r1,	&0x1cd4	;
    715c:	92 41 02 00 	mov	2(r1),	&0x1cd6	;
    7160:	d6 1c 
    7162:	92 41 04 00 	mov	4(r1),	&0x1cd8	;
    7166:	d8 1c 
    7168:	92 41 06 00 	mov	6(r1),	&0x1cda	;
    716c:	da 1c 
    716e:	92 41 08 00 	mov	8(r1),	&0x1cdc	;
    7172:	dc 1c 

00007174 <.LBB52>:
    7174:	c2 9a d6 1c 	cmp.b	r10,	&0x1cd6	;
    7178:	07 20       	jnz	$+16     	;abs 0x7188

0000717a <.Loc.516.1>:
    717a:	82 43 d4 1c 	mov	#0,	&0x1cd4	;r3 As==00

0000717e <.Loc.517.1>:
    717e:	4e 43       	clr.b	r14		;
    7180:	5d 43       	mov.b	#1,	r13	;r3 As==01
    7182:	4c 43       	clr.b	r12		;
    7184:	b0 12 e0 73 	call	#29664		;#0x73e0

00007188 <.L216>:
    7188:	b0 12 42 6f 	call	#28482		;#0x6f42

0000718c <.Loc.447.1>:
    718c:	6c 43       	mov.b	#2,	r12	;r3 As==10
    718e:	b0 12 44 74 	call	#29764		;#0x7444

00007192 <.Loc.448.1>:
    7192:	6c 43       	mov.b	#2,	r12	;r3 As==10
    7194:	b0 12 98 75 	call	#30104		;#0x7598

00007198 <.Loc.450.1>:
    7198:	31 50 0a 00 	add	#10,	r1	;#0x000a

0000719c <.LCFI66>:
    719c:	0a 17       	popm	#1,	r10	;16-bit words

0000719e <.LCFI67>:
    719e:	30 41       	ret			

000071a0 <clear_pdc_status>:
    71a0:	5c 92 d6 1c 	cmp.b	&0x1cd6,r12	;0x1cd6
    71a4:	07 20       	jnz	$+16     	;abs 0x71b4

000071a6 <.Loc.516.1>:
    71a6:	82 43 d4 1c 	mov	#0,	&0x1cd4	;r3 As==00

000071aa <.Loc.517.1>:
    71aa:	4e 43       	clr.b	r14		;
    71ac:	5d 43       	mov.b	#1,	r13	;r3 As==01
    71ae:	4c 43       	clr.b	r12		;

000071b0 <.LVL242>:
    71b0:	b0 12 e0 73 	call	#29664		;#0x73e0

000071b4 <.L217>:
    71b4:	30 41       	ret			

000071b6 <__priority_init>:
    71b6:	cc 43 08 00 	mov.b	#0,	8(r12)	;r3 As==00

000071ba <.Loc.83.1>:
    71ba:	cc 43 07 00 	mov.b	#0,	7(r12)	;r3 As==00

000071be <.Loc.83.1>:
    71be:	cc 43 06 00 	mov.b	#0,	6(r12)	;r3 As==00

000071c2 <.Loc.83.1>:
    71c2:	cc 43 05 00 	mov.b	#0,	5(r12)	;r3 As==00

000071c6 <.Loc.83.1>:
    71c6:	cc 43 04 00 	mov.b	#0,	4(r12)	;r3 As==00

000071ca <.Loc.83.1>:
    71ca:	cc 43 03 00 	mov.b	#0,	3(r12)	;r3 As==00

000071ce <.Loc.83.1>:
    71ce:	cc 43 02 00 	mov.b	#0,	2(r12)	;r3 As==00

000071d2 <.Loc.83.1>:
    71d2:	cc 43 01 00 	mov.b	#0,	1(r12)	;r3 As==00

000071d6 <.Loc.83.1>:
    71d6:	cc 43 08 00 	mov.b	#0,	8(r12)	;r3 As==00

000071da <.Loc.88.1>:
    71da:	30 41       	ret			

000071dc <__priority_insert>:
    71dc:	3c f0 ff 00 	and	#255,	r12	;#0x00ff

000071e0 <.Loc.93.1>:
    71e0:	0e 4c       	mov	r12,	r14	;
    71e2:	5e 09       	rram	#3,	r14	;

000071e4 <.Loc.99.1>:
    71e4:	7e f0 07 00 	and.b	#7,	r14	;

000071e8 <.Loc.99.1>:
    71e8:	dd de 00 45 	bis.b	17664(r14),8(r13)	;0x04500
    71ec:	08 00 

000071ee <.Loc.100.1>:
    71ee:	0d 5e       	add	r14,	r13	;

000071f0 <.LVL12>:
    71f0:	7c f0 07 00 	and.b	#7,	r12	;

000071f4 <.LVL13>:
    71f4:	dd dc 00 45 	bis.b	17664(r12),0(r13)	;0x04500
    71f8:	00 00 

000071fa <.Loc.101.1>:
    71fa:	30 41       	ret			

000071fc <__priority_remove>:
    71fc:	3c f0 ff 00 	and	#255,	r12	;#0x00ff

00007200 <.Loc.106.1>:
    7200:	0e 4c       	mov	r12,	r14	;
    7202:	5e 09       	rram	#3,	r14	;

00007204 <.Loc.112.1>:
    7204:	7e f0 07 00 	and.b	#7,	r14	;
    7208:	0f 4d       	mov	r13,	r15	;
    720a:	0f 5e       	add	r14,	r15	;

0000720c <.Loc.112.1>:
    720c:	7c f0 07 00 	and.b	#7,	r12	;

00007210 <.LVL16>:
    7210:	df cc 00 45 	bic.b	17664(r12),0(r15)	;0x04500
    7214:	00 00 

00007216 <.Loc.114.1>:
    7216:	6c 4f       	mov.b	@r15,	r12	;

00007218 <.Loc.114.1>:
    7218:	0c 93       	cmp	#0,	r12	;r3 As==00
    721a:	03 20       	jnz	$+8      	;abs 0x7222

0000721c <.Loc.115.1>:
    721c:	dd ce 00 45 	bic.b	17664(r14),8(r13)	;0x04500
    7220:	08 00 

00007222 <.L4>:
    7222:	30 41       	ret			

00007224 <__priority_highest>:
    7224:	5d 4c 08 00 	mov.b	8(r12),	r13	;

00007228 <.LVL18>:
    7228:	5d 4d 00 44 	mov.b	17408(r13),r13	;0x04400

0000722c <.LVL19>:
    722c:	0c 5d       	add	r13,	r12	;

0000722e <.LVL20>:
    722e:	6e 4c       	mov.b	@r12,	r14	;

00007230 <.Loc.127.1>:
    7230:	0c 4d       	mov	r13,	r12	;
    7232:	5c 0a       	rlam	#3,	r12	;

00007234 <.Loc.128.1>:
    7234:	5c de 00 44 	bis.b	17408(r14),r12	;0x04400
    7238:	30 41       	ret			

0000723a <stop_timer>:
    723a:	82 43 02 04 	mov	#0,	&0x0402	;r3 As==00

0000723e <.Loc.158.1>:
    723e:	82 43 00 04 	mov	#0,	&0x0400	;r3 As==00

00007242 <.Loc.159.1>:
    7242:	30 41       	ret			

00007244 <timerA2_init>:
    7244:	82 43 02 04 	mov	#0,	&0x0402	;r3 As==00
    7248:	82 43 00 04 	mov	#0,	&0x0400	;r3 As==00
    724c:	30 41       	ret			

0000724e <set_timer_wkup>:
    724e:	82 43 40 03 	mov	#0,	&0x0340	;r3 As==00

00007252 <.Loc.172.1>:
    7252:	82 4c 52 03 	mov	r12,	&0x0352	;

00007256 <.Loc.173.1>:
    7256:	b2 40 10 00 	mov	#16,	&0x0342	;#0x0010
    725a:	42 03 

0000725c <.Loc.174.1>:
    725c:	b2 40 14 02 	mov	#532,	&0x0340	;#0x0214
    7260:	40 03 

00007262 <.Loc.175.1>:
    7262:	30 41       	ret			

00007264 <set_timer_xpr>:
    7264:	82 43 00 04 	mov	#0,	&0x0400	;r3 As==00

00007268 <.Loc.179.1>:
    7268:	82 4c 12 04 	mov	r12,	&0x0412	;

0000726c <.Loc.180.1>:
    726c:	b2 40 10 00 	mov	#16,	&0x0402	;#0x0010
    7270:	02 04 

00007272 <.Loc.181.1>:
    7272:	b2 40 14 01 	mov	#276,	&0x0400	;#0x0114
    7276:	00 04 

00007278 <.Loc.183.1>:
    7278:	30 41       	ret			

0000727a <stop_timer_xpr>:
    727a:	82 43 02 04 	mov	#0,	&0x0402	;r3 As==00
    727e:	82 43 00 04 	mov	#0,	&0x0400	;r3 As==00
    7282:	30 41       	ret			

00007284 <set_timer_pdc>:
    7284:	82 43 80 03 	mov	#0,	&0x0380	;r3 As==00

00007288 <.Loc.195.1>:
    7288:	82 4c 92 03 	mov	r12,	&0x0392	;

0000728c <.Loc.196.1>:
    728c:	b2 40 10 00 	mov	#16,	&0x0382	;#0x0010
    7290:	82 03 

00007292 <.Loc.197.1>:
    7292:	b2 40 14 02 	mov	#532,	&0x0380	;#0x0214
    7296:	80 03 

00007298 <.Loc.198.1>:
    7298:	30 41       	ret			

0000729a <__setup_rtc>:
    729a:	30 41       	ret			

0000729c <__setup_clock>:
    729c:	f2 40 a5 ff 	mov.b	#-91,	&0x0161	;#0xffa5
    72a0:	61 01 

000072a2 <.Loc.246.1>:
    72a2:	b2 40 00 01 	mov	#256,	&0x0164	;#0x0100
    72a6:	64 01 

000072a8 <.Loc.247.1>:
    72a8:	82 43 66 01 	mov	#0,	&0x0166	;r3 As==00

000072ac <.Loc.248.1>:
    72ac:	c2 43 61 01 	mov.b	#0,	&0x0161	;r3 As==00

000072b0 <.Loc.250.1>:
    72b0:	30 41       	ret			

000072b2 <__get_rtc_time>:
    72b2:	4c 43       	clr.b	r12		;
    72b4:	4d 43       	clr.b	r13		;
    72b6:	30 41       	ret			

000072b8 <__get_time_init>:
    72b8:	82 43 80 51 	mov	#0,	&0x5180	;r3 As==00
    72bc:	82 43 82 51 	mov	#0,	&0x5182	;r3 As==00

000072c0 <.Loc.330.1>:
    72c0:	82 43 40 04 	mov	#0,	&0x0440	;r3 As==00

000072c4 <.Loc.332.1>:
    72c4:	b2 40 26 01 	mov	#294,	&0x0440	;#0x0126
    72c8:	40 04 

000072ca <.Loc.334.1>:
    72ca:	03 43       	nop			
    72cc:	32 d2       	eint			
    72ce:	03 43       	nop			

000072d0 <.Loc.335.1>:
    72d0:	30 41       	ret			

000072d2 <__get_time_stop>:
    72d2:	82 43 40 04 	mov	#0,	&0x0440	;r3 As==00

000072d6 <.Loc.343.1>:
    72d6:	82 43 42 04 	mov	#0,	&0x0442	;r3 As==00

000072da <.Loc.344.1>:
    72da:	30 41       	ret			

000072dc <__get_time>:
    72dc:	b2 e0 20 00 	xor	#32,	&0x0440	;#0x0020
    72e0:	40 04 

000072e2 <.Loc.356.1>:
    72e2:	1c 42 50 04 	mov	&0x0450,r12	;0x0450

000072e6 <.Loc.358.1>:
    72e6:	b2 e0 20 00 	xor	#32,	&0x0440	;#0x0020
    72ea:	40 04 

000072ec <.Loc.362.1>:
    72ec:	0d 43       	clr	r13		;

000072ee <.LVL6>:
    72ee:	0e 4c       	mov	r12,	r14	;
    72f0:	0f 4d       	mov	r13,	r15	;
    72f2:	0e 5e       	rla	r14		;
    72f4:	0f 6f       	rlc	r15		;
    72f6:	0e 5e       	rla	r14		;
    72f8:	0f 6f       	rlc	r15		;
    72fa:	0c 5e       	add	r14,	r12	;

000072fc <.LVL7>:
    72fc:	0d 6f       	addc	r15,	r13	;
    72fe:	0c 5c       	rla	r12		;
    7300:	0d 6d       	rlc	r13		;

00007302 <.Loc.363.1>:
    7302:	1c 52 80 51 	add	&0x5180,r12	;0x5180
    7306:	1d 62 82 51 	addc	&0x5182,r13	;0x5182
    730a:	30 41       	ret			

0000730c <TIMER3_A1_ISR>:
    730c:	b2 50 aa 00 	add	#170,	&0x5180	;#0x00aa
    7310:	80 51 
    7312:	b2 60 0a 00 	addc	#10,	&0x5182	;#0x000a
    7316:	82 51 

00007318 <.Loc.380.1>:
    7318:	92 c3 40 04 	bic	#1,	&0x0440	;r3 As==01

0000731c <.Loc.381.1>:
    731c:	00 13       	reti			

0000731e <_pers_timer_init>:
    731e:	3c 40 84 51 	mov	#20868,	r12	;#0x5184
    7322:	8c 43 00 00 	mov	#0,	0(r12)	;r3 As==00

00007326 <.Loc.34.1>:
    7326:	8c 43 0a 00 	mov	#0,	10(r12)	;r3 As==00, 0x000a

0000732a <.Loc.34.1>:
    732a:	8c 43 14 00 	mov	#0,	20(r12)	;r3 As==00, 0x0014

0000732e <.Loc.34.1>:
    732e:	8c 43 1e 00 	mov	#0,	30(r12)	;r3 As==00, 0x001e

00007332 <.Loc.38.1>:
    7332:	8c 43 28 00 	mov	#0,	40(r12)	;r3 As==00, 0x0028

00007336 <.Loc.38.1>:
    7336:	8c 43 32 00 	mov	#0,	50(r12)	;r3 As==00, 0x0032

0000733a <.Loc.38.1>:
    733a:	8c 43 3c 00 	mov	#0,	60(r12)	;r3 As==00, 0x003c

0000733e <.Loc.42.1>:
    733e:	30 41       	ret			

00007340 <_pers_timer_update_data>:
    7340:	3c f0 ff 00 	and	#255,	r12	;#0x00ff

00007344 <.Loc.50.1>:
    7344:	1d 93       	cmp	#1,	r13	;r3 As==01
    7346:	1b 24       	jz	$+56     	;abs 0x737e
    7348:	2d 93       	cmp	#2,	r13	;r3 As==10
    734a:	0e 24       	jz	$+30     	;abs 0x7368
    734c:	0d 93       	cmp	#0,	r13	;r3 As==00
    734e:	01 24       	jz	$+4      	;abs 0x7352

00007350 <.Loc.69.1>:
    7350:	30 41       	ret			

00007352 <.L7>:
    7352:	0d 4c       	mov	r12,	r13	;

00007354 <.LVL9>:
    7354:	5d 06       	rlam	#2,	r13	;
    7356:	0c 5d       	add	r13,	r12	;

00007358 <.LVL10>:
    7358:	5c 02       	rlam	#1,	r12	;
    735a:	8c 4e ec 51 	mov	r14,	20972(r12); 0x51ec
    735e:	8c 4f ee 51 	mov	r15,	20974(r12); 0x51ee

00007362 <.Loc.54.1>:
    7362:	9c 43 f0 51 	mov	#1,	20976(r12);r3 As==01, 0x51f0

00007366 <.Loc.55.1>:
    7366:	30 41       	ret			

00007368 <.L5>:
    7368:	0d 4c       	mov	r12,	r13	;

0000736a <.LVL12>:
    736a:	5d 06       	rlam	#2,	r13	;
    736c:	0c 5d       	add	r13,	r12	;
    736e:	5c 02       	rlam	#1,	r12	;
    7370:	8c 4e 0a 52 	mov	r14,	21002(r12); 0x520a
    7374:	8c 4f 0c 52 	mov	r15,	21004(r12); 0x520c

00007378 <.Loc.58.1>:
    7378:	9c 43 0e 52 	mov	#1,	21006(r12);r3 As==01, 0x520e

0000737c <.Loc.59.1>:
    737c:	30 41       	ret			

0000737e <.L4>:
    737e:	0d 4c       	mov	r12,	r13	;

00007380 <.LVL14>:
    7380:	5d 06       	rlam	#2,	r13	;
    7382:	0c 5d       	add	r13,	r12	;
    7384:	5c 02       	rlam	#1,	r12	;
    7386:	8c 4e 28 52 	mov	r14,	21032(r12); 0x5228
    738a:	8c 4f 2a 52 	mov	r15,	21034(r12); 0x522a

0000738e <.Loc.62.1>:
    738e:	9c 43 2c 52 	mov	#1,	21036(r12);r3 As==01, 0x522c

00007392 <.Loc.63.1>:
    7392:	30 41       	ret			

00007394 <_pers_timer_update_thread_id>:
    7394:	3c f0 ff 00 	and	#255,	r12	;#0x00ff
    7398:	3e f0 ff 00 	and	#255,	r14	;#0x00ff

0000739c <.Loc.73.1>:
    739c:	1d 93       	cmp	#1,	r13	;r3 As==01
    739e:	17 24       	jz	$+48     	;abs 0x73ce
    73a0:	2d 93       	cmp	#2,	r13	;r3 As==10
    73a2:	0c 24       	jz	$+26     	;abs 0x73bc
    73a4:	0d 93       	cmp	#0,	r13	;r3 As==00
    73a6:	01 24       	jz	$+4      	;abs 0x73aa

000073a8 <.Loc.91.1>:
    73a8:	30 41       	ret			

000073aa <.L12>:
    73aa:	0d 4c       	mov	r12,	r13	;

000073ac <.LVL16>:
    73ac:	5d 06       	rlam	#2,	r13	;
    73ae:	0c 5d       	add	r13,	r12	;

000073b0 <.LVL17>:
    73b0:	5c 02       	rlam	#1,	r12	;
    73b2:	cc 4e ea 51 	mov.b	r14,	20970(r12); 0x51ea

000073b6 <.Loc.77.1>:
    73b6:	9c 43 f0 51 	mov	#1,	20976(r12);r3 As==01, 0x51f0

000073ba <.Loc.78.1>:
    73ba:	30 41       	ret			

000073bc <.L10>:
    73bc:	0d 4c       	mov	r12,	r13	;

000073be <.LVL19>:
    73be:	5d 06       	rlam	#2,	r13	;
    73c0:	0c 5d       	add	r13,	r12	;
    73c2:	5c 02       	rlam	#1,	r12	;
    73c4:	cc 4e 08 52 	mov.b	r14,	21000(r12); 0x5208

000073c8 <.Loc.81.1>:
    73c8:	9c 43 0e 52 	mov	#1,	21006(r12);r3 As==01, 0x520e

000073cc <.Loc.82.1>:
    73cc:	30 41       	ret			

000073ce <.L9>:
    73ce:	0d 4c       	mov	r12,	r13	;

000073d0 <.LVL21>:
    73d0:	5d 06       	rlam	#2,	r13	;
    73d2:	0c 5d       	add	r13,	r12	;
    73d4:	5c 02       	rlam	#1,	r12	;
    73d6:	cc 4e 26 52 	mov.b	r14,	21030(r12); 0x5226

000073da <.Loc.85.1>:
    73da:	9c 43 2c 52 	mov	#1,	21036(r12);r3 As==01, 0x522c

000073de <.Loc.86.1>:
    73de:	30 41       	ret			

000073e0 <_pers_timer_update_status>:
    73e0:	3c f0 ff 00 	and	#255,	r12	;#0x00ff

000073e4 <.Loc.95.1>:
    73e4:	1d 93       	cmp	#1,	r13	;r3 As==01
    73e6:	17 24       	jz	$+48     	;abs 0x7416
    73e8:	2d 93       	cmp	#2,	r13	;r3 As==10
    73ea:	0c 24       	jz	$+26     	;abs 0x7404
    73ec:	0d 93       	cmp	#0,	r13	;r3 As==00
    73ee:	01 24       	jz	$+4      	;abs 0x73f2

000073f0 <.Loc.113.1>:
    73f0:	30 41       	ret			

000073f2 <.L17>:
    73f2:	0d 4c       	mov	r12,	r13	;

000073f4 <.LVL23>:
    73f4:	5d 06       	rlam	#2,	r13	;
    73f6:	0c 5d       	add	r13,	r12	;

000073f8 <.LVL24>:
    73f8:	5c 02       	rlam	#1,	r12	;
    73fa:	8c 4e e8 51 	mov	r14,	20968(r12); 0x51e8

000073fe <.Loc.99.1>:
    73fe:	9c 43 f0 51 	mov	#1,	20976(r12);r3 As==01, 0x51f0

00007402 <.Loc.100.1>:
    7402:	30 41       	ret			

00007404 <.L15>:
    7404:	0d 4c       	mov	r12,	r13	;

00007406 <.LVL26>:
    7406:	5d 06       	rlam	#2,	r13	;
    7408:	0c 5d       	add	r13,	r12	;
    740a:	5c 02       	rlam	#1,	r12	;
    740c:	8c 4e 06 52 	mov	r14,	20998(r12); 0x5206

00007410 <.Loc.103.1>:
    7410:	9c 43 0e 52 	mov	#1,	21006(r12);r3 As==01, 0x520e

00007414 <.Loc.104.1>:
    7414:	30 41       	ret			

00007416 <.L14>:
    7416:	0d 4c       	mov	r12,	r13	;

00007418 <.LVL28>:
    7418:	5d 06       	rlam	#2,	r13	;
    741a:	0c 5d       	add	r13,	r12	;
    741c:	5c 02       	rlam	#1,	r12	;
    741e:	8c 4e 24 52 	mov	r14,	21028(r12); 0x5224

00007422 <.Loc.107.1>:
    7422:	9c 43 2c 52 	mov	#1,	21036(r12);r3 As==01, 0x522c

00007426 <.Loc.108.1>:
    7426:	30 41       	ret			

00007428 <_pers_timer_update_nxt_thread>:
    7428:	0e 4c       	mov	r12,	r14	;
    742a:	5e 0a       	rlam	#3,	r14	;
    742c:	ce 4d 30 52 	mov.b	r13,	21040(r14); 0x5230

00007430 <.Loc.118.1>:
    7430:	9e 43 34 52 	mov	#1,	21044(r14);r3 As==01, 0x5234

00007434 <.Loc.119.1>:
    7434:	30 41       	ret			

00007436 <_pers_timer_update_nxt_time>:
    7436:	0e 4c       	mov	r12,	r14	;
    7438:	5e 0a       	rlam	#3,	r14	;
    743a:	8e 4d 32 52 	mov	r13,	21042(r14); 0x5232

0000743e <.Loc.124.1>:
    743e:	9e 43 34 52 	mov	#1,	21044(r14);r3 As==01, 0x5234

00007442 <.Loc.125.1>:
    7442:	30 41       	ret			

00007444 <_pers_timer_update_lock>:
    7444:	1c 93       	cmp	#1,	r12	;r3 As==01
    7446:	0b 24       	jz	$+24     	;abs 0x745e
    7448:	2c 93       	cmp	#2,	r12	;r3 As==10
    744a:	06 24       	jz	$+14     	;abs 0x7458
    744c:	0c 93       	cmp	#0,	r12	;r3 As==00
    744e:	01 24       	jz	$+4      	;abs 0x7452

00007450 <.Loc.145.1>:
    7450:	30 41       	ret			

00007452 <.L24>:
    7452:	92 43 4c 52 	mov	#1,	&0x524c	;r3 As==01

00007456 <.Loc.133.1>:
    7456:	30 41       	ret			

00007458 <.L22>:
    7458:	92 43 4e 52 	mov	#1,	&0x524e	;r3 As==01

0000745c <.Loc.136.1>:
    745c:	30 41       	ret			

0000745e <.L21>:
    745e:	92 43 50 52 	mov	#1,	&0x5250	;r3 As==01

00007462 <.Loc.139.1>:
    7462:	30 41       	ret			

00007464 <_commit_timer_buffers>:
    7464:	3d 40 84 51 	mov	#20868,	r13	;#0x5184
    7468:	1c 93       	cmp	#1,	r12	;r3 As==01
    746a:	18 24       	jz	$+50     	;abs 0x749c
    746c:	2c 93       	cmp	#2,	r12	;r3 As==10
    746e:	40 24       	jz	$+130    	;abs 0x74f0
    7470:	0c 93       	cmp	#0,	r12	;r3 As==00
    7472:	26 24       	jz	$+78     	;abs 0x74c0

00007474 <.L28>:
    7474:	0e 4c       	mov	r12,	r14	;
    7476:	5e 0a       	rlam	#3,	r14	;
    7478:	9e 93 34 52 	cmp	#1,	21044(r14);r3 As==01, 0x5234
    747c:	01 24       	jz	$+4      	;abs 0x7480

0000747e <.Loc.201.1>:
    747e:	30 41       	ret			

00007480 <.L40>:
    7480:	0c 4e       	mov	r14,	r12	;

00007482 <.LVL33>:
    7482:	0c 5d       	add	r13,	r12	;
    7484:	9c 4c aa 00 	mov	170(r12),70(r12)	;0x000aa, 0x0046
    7488:	46 00 
    748a:	9c 4c ac 00 	mov	172(r12),72(r12)	;0x000ac, 0x0048
    748e:	48 00 
    7490:	9c 4c ae 00 	mov	174(r12),74(r12)	;0x000ae, 0x004a
    7494:	4a 00 

00007496 <.Loc.197.1>:
    7496:	8c 43 4c 00 	mov	#0,	76(r12)	;r3 As==00, 0x004c

0000749a <.Loc.191.1>:
    749a:	30 41       	ret			

0000749c <.L26>:
    749c:	92 93 2c 52 	cmp	#1,	&0x522c	;r3 As==01
    74a0:	e9 23       	jnz	$-44     	;abs 0x7474

000074a2 <.Loc.182.1>:
    74a2:	92 42 24 52 	mov	&0x5224,&0x51c0	;0x5224
    74a6:	c0 51 
    74a8:	92 42 26 52 	mov	&0x5226,&0x51c2	;0x5226
    74ac:	c2 51 
    74ae:	92 42 28 52 	mov	&0x5228,&0x51c4	;0x5228
    74b2:	c4 51 
    74b4:	92 42 2a 52 	mov	&0x522a,&0x51c6	;0x522a
    74b8:	c6 51 

000074ba <.Loc.183.1>:
    74ba:	82 43 c8 51 	mov	#0,	&0x51c8	;r3 As==00

000074be <.Loc.177.1>:
    74be:	da 3f       	jmp	$-74     	;abs 0x7474

000074c0 <.L39>:
    74c0:	92 93 f0 51 	cmp	#1,	&0x51f0	;r3 As==01
    74c4:	5a 24       	jz	$+182    	;abs 0x757a

000074c6 <.L29>:
    74c6:	92 93 fa 51 	cmp	#1,	&0x51fa	;r3 As==01
    74ca:	48 24       	jz	$+146    	;abs 0x755c

000074cc <.L30>:
    74cc:	92 93 04 52 	cmp	#1,	&0x5204	;r3 As==01
    74d0:	d1 23       	jnz	$-92     	;abs 0x7474

000074d2 <.Loc.160.1>:
    74d2:	92 42 fc 51 	mov	&0x51fc,&0x5198	;0x51fc
    74d6:	98 51 
    74d8:	92 42 fe 51 	mov	&0x51fe,&0x519a	;0x51fe
    74dc:	9a 51 
    74de:	92 42 00 52 	mov	&0x5200,&0x519c	;0x5200
    74e2:	9c 51 
    74e4:	92 42 02 52 	mov	&0x5202,&0x519e	;0x5202
    74e8:	9e 51 

000074ea <.Loc.161.1>:
    74ea:	82 43 a0 51 	mov	#0,	&0x51a0	;r3 As==00

000074ee <.Loc.155.1>:
    74ee:	c2 3f       	jmp	$-122    	;abs 0x7474

000074f0 <.L27>:
    74f0:	92 93 0e 52 	cmp	#1,	&0x520e	;r3 As==01
    74f4:	24 24       	jz	$+74     	;abs 0x753e

000074f6 <.L32>:
    74f6:	92 93 18 52 	cmp	#1,	&0x5218	;r3 As==01
    74fa:	12 24       	jz	$+38     	;abs 0x7520

000074fc <.L33>:
    74fc:	92 93 22 52 	cmp	#1,	&0x5222	;r3 As==01
    7500:	b9 23       	jnz	$-140    	;abs 0x7474

00007502 <.Loc.171.1>:
    7502:	92 42 1a 52 	mov	&0x521a,&0x51b6	;0x521a
    7506:	b6 51 
    7508:	92 42 1c 52 	mov	&0x521c,&0x51b8	;0x521c
    750c:	b8 51 
    750e:	92 42 1e 52 	mov	&0x521e,&0x51ba	;0x521e
    7512:	ba 51 
    7514:	92 42 20 52 	mov	&0x5220,&0x51bc	;0x5220
    7518:	bc 51 

0000751a <.Loc.172.1>:
    751a:	82 43 be 51 	mov	#0,	&0x51be	;r3 As==00

0000751e <.Loc.166.1>:
    751e:	aa 3f       	jmp	$-170    	;abs 0x7474

00007520 <.L44>:
    7520:	92 42 10 52 	mov	&0x5210,&0x51ac	;0x5210
    7524:	ac 51 
    7526:	92 42 12 52 	mov	&0x5212,&0x51ae	;0x5212
    752a:	ae 51 
    752c:	92 42 14 52 	mov	&0x5214,&0x51b0	;0x5214
    7530:	b0 51 
    7532:	92 42 16 52 	mov	&0x5216,&0x51b2	;0x5216
    7536:	b2 51 

00007538 <.Loc.172.1>:
    7538:	82 43 b4 51 	mov	#0,	&0x51b4	;r3 As==00
    753c:	df 3f       	jmp	$-64     	;abs 0x74fc

0000753e <.L43>:
    753e:	92 42 06 52 	mov	&0x5206,&0x51a2	;0x5206
    7542:	a2 51 
    7544:	92 42 08 52 	mov	&0x5208,&0x51a4	;0x5208
    7548:	a4 51 
    754a:	92 42 0a 52 	mov	&0x520a,&0x51a6	;0x520a
    754e:	a6 51 
    7550:	92 42 0c 52 	mov	&0x520c,&0x51a8	;0x520c
    7554:	a8 51 

00007556 <.Loc.172.1>:
    7556:	82 43 aa 51 	mov	#0,	&0x51aa	;r3 As==00
    755a:	cd 3f       	jmp	$-100    	;abs 0x74f6

0000755c <.L42>:
    755c:	92 42 f2 51 	mov	&0x51f2,&0x518e	;0x51f2
    7560:	8e 51 
    7562:	92 42 f4 51 	mov	&0x51f4,&0x5190	;0x51f4
    7566:	90 51 
    7568:	92 42 f6 51 	mov	&0x51f6,&0x5192	;0x51f6
    756c:	92 51 
    756e:	92 42 f8 51 	mov	&0x51f8,&0x5194	;0x51f8
    7572:	94 51 

00007574 <.Loc.161.1>:
    7574:	82 43 96 51 	mov	#0,	&0x5196	;r3 As==00
    7578:	a9 3f       	jmp	$-172    	;abs 0x74cc

0000757a <.L41>:
    757a:	92 42 e8 51 	mov	&0x51e8,&0x5184	;0x51e8
    757e:	84 51 
    7580:	92 42 ea 51 	mov	&0x51ea,&0x5186	;0x51ea
    7584:	86 51 
    7586:	92 42 ec 51 	mov	&0x51ec,&0x5188	;0x51ec
    758a:	88 51 
    758c:	92 42 ee 51 	mov	&0x51ee,&0x518a	;0x51ee
    7590:	8a 51 

00007592 <.Loc.161.1>:
    7592:	82 43 8c 51 	mov	#0,	&0x518c	;r3 As==00
    7596:	97 3f       	jmp	$-208    	;abs 0x74c6

00007598 <_pers_timer_commit>:
    7598:	1c 93       	cmp	#1,	r12	;r3 As==01
    759a:	17 24       	jz	$+48     	;abs 0x75ca
    759c:	2c 93       	cmp	#2,	r12	;r3 As==10
    759e:	0c 24       	jz	$+26     	;abs 0x75b8
    75a0:	0c 93       	cmp	#0,	r12	;r3 As==00
    75a2:	01 24       	jz	$+4      	;abs 0x75a6

000075a4 <.L45>:
    75a4:	30 41       	ret			

000075a6 <.L49>:
    75a6:	1d 42 4c 52 	mov	&0x524c,r13	;0x524c

000075aa <.Loc.207.1>:
    75aa:	1d 93       	cmp	#1,	r13	;r3 As==01
    75ac:	fb 23       	jnz	$-8      	;abs 0x75a4

000075ae <.Loc.209.1>:
    75ae:	b0 12 64 74 	call	#29796		;#0x7464

000075b2 <.LVL49>:
    75b2:	a2 43 4c 52 	mov	#2,	&0x524c	;r3 As==10

000075b6 <.Loc.230.1>:
    75b6:	30 41       	ret			

000075b8 <.L47>:
    75b8:	1d 42 4e 52 	mov	&0x524e,r13	;0x524e

000075bc <.Loc.214.1>:
    75bc:	1d 93       	cmp	#1,	r13	;r3 As==01
    75be:	f2 23       	jnz	$-26     	;abs 0x75a4

000075c0 <.Loc.216.1>:
    75c0:	b0 12 64 74 	call	#29796		;#0x7464

000075c4 <.LVL51>:
    75c4:	a2 43 4e 52 	mov	#2,	&0x524e	;r3 As==10

000075c8 <.Loc.230.1>:
    75c8:	30 41       	ret			

000075ca <.L46>:
    75ca:	1d 42 50 52 	mov	&0x5250,r13	;0x5250

000075ce <.Loc.220.1>:
    75ce:	1d 93       	cmp	#1,	r13	;r3 As==01
    75d0:	e9 23       	jnz	$-44     	;abs 0x75a4

000075d2 <.Loc.222.1>:
    75d2:	b0 12 64 74 	call	#29796		;#0x7464

000075d6 <.LVL53>:
    75d6:	a2 43 50 52 	mov	#2,	&0x5250	;r3 As==10

000075da <.Loc.230.1>:
    75da:	30 41       	ret			

000075dc <_pers_timer_get>:
    75dc:	3d f0 ff 00 	and	#255,	r13	;#0x00ff

000075e0 <.Loc.233.1>:
    75e0:	1e 93       	cmp	#1,	r14	;r3 As==01
    75e2:	17 24       	jz	$+48     	;abs 0x7612
    75e4:	2e 93       	cmp	#2,	r14	;r3 As==10
    75e6:	2a 24       	jz	$+86     	;abs 0x763c

000075e8 <.Loc.242.1>:
    75e8:	0e 4d       	mov	r13,	r14	;

000075ea <.LVL55>:
    75ea:	5e 06       	rlam	#2,	r14	;
    75ec:	0d 5e       	add	r14,	r13	;

000075ee <.LVL56>:
    75ee:	5d 02       	rlam	#1,	r13	;
    75f0:	3d 50 84 51 	add	#20868,	r13	;#0x5184
    75f4:	0e 4d       	mov	r13,	r14	;
    75f6:	bc 4e 00 00 	mov	@r14+,	0(r12)	;
    75fa:	bc 4e 02 00 	mov	@r14+,	2(r12)	;
    75fe:	9c 4d 04 00 	mov	4(r13),	4(r12)	;
    7602:	04 00 
    7604:	9c 4d 06 00 	mov	6(r13),	6(r12)	;
    7608:	06 00 
    760a:	9c 4e 04 00 	mov	4(r14),	8(r12)	;
    760e:	08 00 

00007610 <.Loc.245.1>:
    7610:	30 41       	ret			

00007612 <.L51>:
    7612:	0e 4d       	mov	r13,	r14	;

00007614 <.LVL58>:
    7614:	5e 06       	rlam	#2,	r14	;
    7616:	0d 5e       	add	r14,	r13	;
    7618:	5d 02       	rlam	#1,	r13	;
    761a:	3d 50 c0 51 	add	#20928,	r13	;#0x51c0

0000761e <.Loc.242.1>:
    761e:	0e 4d       	mov	r13,	r14	;
    7620:	bc 4e 00 00 	mov	@r14+,	0(r12)	;
    7624:	bc 4e 02 00 	mov	@r14+,	2(r12)	;
    7628:	9c 4d 04 00 	mov	4(r13),	4(r12)	;
    762c:	04 00 
    762e:	9c 4d 06 00 	mov	6(r13),	6(r12)	;
    7632:	06 00 
    7634:	9c 4e 04 00 	mov	4(r14),	8(r12)	;
    7638:	08 00 

0000763a <.Loc.245.1>:
    763a:	30 41       	ret			

0000763c <.L55>:
    763c:	0e 4d       	mov	r13,	r14	;

0000763e <.LVL60>:
    763e:	5e 06       	rlam	#2,	r14	;
    7640:	0d 5e       	add	r14,	r13	;
    7642:	5d 02       	rlam	#1,	r13	;
    7644:	3d 50 a2 51 	add	#20898,	r13	;#0x51a2

00007648 <.Loc.242.1>:
    7648:	0e 4d       	mov	r13,	r14	;
    764a:	bc 4e 00 00 	mov	@r14+,	0(r12)	;
    764e:	bc 4e 02 00 	mov	@r14+,	2(r12)	;
    7652:	9c 4d 04 00 	mov	4(r13),	4(r12)	;
    7656:	04 00 
    7658:	9c 4d 06 00 	mov	6(r13),	6(r12)	;
    765c:	06 00 
    765e:	9c 4e 04 00 	mov	4(r14),	8(r12)	;
    7662:	08 00 

00007664 <.Loc.245.1>:
    7664:	30 41       	ret			

00007666 <_pers_timer_get_data>:
    7666:	4e 4c       	mov.b	r12,	r14	;

00007668 <.Loc.249.1>:
    7668:	1d 93       	cmp	#1,	r13	;r3 As==01
    766a:	14 24       	jz	$+42     	;abs 0x7694
    766c:	2d 93       	cmp	#2,	r13	;r3 As==10
    766e:	0b 24       	jz	$+24     	;abs 0x7686
    7670:	4c 43       	clr.b	r12		;

00007672 <.LVL62>:
    7672:	0d 93       	cmp	#0,	r13	;r3 As==00
    7674:	01 24       	jz	$+4      	;abs 0x7678

00007676 <.Loc.262.1>:
    7676:	30 41       	ret			

00007678 <.L61>:
    7678:	0c 4e       	mov	r14,	r12	;
    767a:	5c 06       	rlam	#2,	r12	;
    767c:	0c 5e       	add	r14,	r12	;
    767e:	5c 02       	rlam	#1,	r12	;
    7680:	1c 4c 88 51 	mov	20872(r12),r12	;0x05188

00007684 <.Loc.262.1>:
    7684:	30 41       	ret			

00007686 <.L58>:
    7686:	0c 4e       	mov	r14,	r12	;

00007688 <.LVL64>:
    7688:	5c 06       	rlam	#2,	r12	;
    768a:	0c 5e       	add	r14,	r12	;
    768c:	5c 02       	rlam	#1,	r12	;
    768e:	1c 4c a6 51 	mov	20902(r12),r12	;0x051a6

00007692 <.Loc.262.1>:
    7692:	30 41       	ret			

00007694 <.L57>:
    7694:	0c 4e       	mov	r14,	r12	;

00007696 <.LVL66>:
    7696:	5c 06       	rlam	#2,	r12	;
    7698:	0c 5e       	add	r14,	r12	;
    769a:	5c 02       	rlam	#1,	r12	;
    769c:	1c 4c c4 51 	mov	20932(r12),r12	;0x051c4

000076a0 <.Loc.262.1>:
    76a0:	30 41       	ret			

000076a2 <_pers_timer_get_thread_id>:
    76a2:	4e 4c       	mov.b	r12,	r14	;

000076a4 <.Loc.266.1>:
    76a4:	1d 93       	cmp	#1,	r13	;r3 As==01
    76a6:	14 24       	jz	$+42     	;abs 0x76d0
    76a8:	2d 93       	cmp	#2,	r13	;r3 As==10
    76aa:	0b 24       	jz	$+24     	;abs 0x76c2
    76ac:	4c 43       	clr.b	r12		;

000076ae <.LVL68>:
    76ae:	0d 93       	cmp	#0,	r13	;r3 As==00
    76b0:	01 24       	jz	$+4      	;abs 0x76b4

000076b2 <.Loc.279.1>:
    76b2:	30 41       	ret			

000076b4 <.L67>:
    76b4:	0c 4e       	mov	r14,	r12	;
    76b6:	5c 06       	rlam	#2,	r12	;
    76b8:	0c 5e       	add	r14,	r12	;
    76ba:	5c 02       	rlam	#1,	r12	;
    76bc:	5c 4c 86 51 	mov.b	20870(r12),r12	;0x05186

000076c0 <.Loc.279.1>:
    76c0:	30 41       	ret			

000076c2 <.L64>:
    76c2:	0c 4e       	mov	r14,	r12	;

000076c4 <.LVL70>:
    76c4:	5c 06       	rlam	#2,	r12	;
    76c6:	0c 5e       	add	r14,	r12	;
    76c8:	5c 02       	rlam	#1,	r12	;
    76ca:	5c 4c a4 51 	mov.b	20900(r12),r12	;0x051a4

000076ce <.Loc.279.1>:
    76ce:	30 41       	ret			

000076d0 <.L63>:
    76d0:	0c 4e       	mov	r14,	r12	;

000076d2 <.LVL72>:
    76d2:	5c 06       	rlam	#2,	r12	;
    76d4:	0c 5e       	add	r14,	r12	;
    76d6:	5c 02       	rlam	#1,	r12	;
    76d8:	5c 4c c2 51 	mov.b	20930(r12),r12	;0x051c2

000076dc <.Loc.279.1>:
    76dc:	30 41       	ret			

000076de <_pers_timer_get_status>:
    76de:	4e 4c       	mov.b	r12,	r14	;

000076e0 <.Loc.283.1>:
    76e0:	1d 93       	cmp	#1,	r13	;r3 As==01
    76e2:	14 24       	jz	$+42     	;abs 0x770c
    76e4:	2d 93       	cmp	#2,	r13	;r3 As==10
    76e6:	0b 24       	jz	$+24     	;abs 0x76fe
    76e8:	5c 43       	mov.b	#1,	r12	;r3 As==01

000076ea <.LVL74>:
    76ea:	0d 93       	cmp	#0,	r13	;r3 As==00
    76ec:	01 24       	jz	$+4      	;abs 0x76f0

000076ee <.Loc.294.1>:
    76ee:	30 41       	ret			

000076f0 <.L73>:
    76f0:	0c 4e       	mov	r14,	r12	;
    76f2:	5c 06       	rlam	#2,	r12	;
    76f4:	0c 5e       	add	r14,	r12	;
    76f6:	5c 02       	rlam	#1,	r12	;
    76f8:	1c 4c 84 51 	mov	20868(r12),r12	;0x05184

000076fc <.Loc.294.1>:
    76fc:	30 41       	ret			

000076fe <.L70>:
    76fe:	0c 4e       	mov	r14,	r12	;

00007700 <.LVL76>:
    7700:	5c 06       	rlam	#2,	r12	;
    7702:	0c 5e       	add	r14,	r12	;
    7704:	5c 02       	rlam	#1,	r12	;
    7706:	1c 4c a2 51 	mov	20898(r12),r12	;0x051a2

0000770a <.Loc.294.1>:
    770a:	30 41       	ret			

0000770c <.L69>:
    770c:	0c 4e       	mov	r14,	r12	;

0000770e <.LVL78>:
    770e:	5c 06       	rlam	#2,	r12	;
    7710:	0c 5e       	add	r14,	r12	;
    7712:	5c 02       	rlam	#1,	r12	;
    7714:	1c 4c c0 51 	mov	20928(r12),r12	;0x051c0

00007718 <.Loc.294.1>:
    7718:	30 41       	ret			

0000771a <_pers_timer_get_nxt_thread>:
    771a:	5c 0a       	rlam	#3,	r12	;

0000771c <.LVL80>:
    771c:	5c 4c cc 51 	mov.b	20940(r12),r12	;0x051cc
    7720:	30 41       	ret			

00007722 <_pers_timer_get_nxt_time>:
    7722:	5c 0a       	rlam	#3,	r12	;

00007724 <.LVL82>:
    7724:	1c 4c ce 51 	mov	20942(r12),r12	;0x051ce
    7728:	30 41       	ret			

0000772a <__mulhi2>:
    772a:	02 12       	push	r2		;
    772c:	32 c2       	dint			
    772e:	03 43       	nop			
    7730:	82 4c c0 04 	mov	r12,	&0x04c0	;
    7734:	82 4d c8 04 	mov	r13,	&0x04c8	;

00007738 <L0^A>:
    7738:	1c 42 ca 04 	mov	&0x04ca,r12	;0x04ca
    773c:	00 13       	reti			

0000773e <__muldi3>:
    773e:	02 12       	push	r2		;
    7740:	32 c2       	dint			
    7742:	03 43       	nop			
    7744:	4a 15       	pushm	#5,	r10	;16-bit words
    7746:	82 48 d0 04 	mov	r8,	&0x04d0	;
    774a:	82 49 d2 04 	mov	r9,	&0x04d2	;
    774e:	82 4e e0 04 	mov	r14,	&0x04e0	;
    7752:	82 4f e2 04 	mov	r15,	&0x04e2	;
    7756:	16 42 e4 04 	mov	&0x04e4,r6	;0x04e4
    775a:	17 42 e6 04 	mov	&0x04e6,r7	;0x04e6
    775e:	82 4a d0 04 	mov	r10,	&0x04d0	;
    7762:	82 4b d2 04 	mov	r11,	&0x04d2	;
    7766:	82 4c e0 04 	mov	r12,	&0x04e0	;
    776a:	82 4d e2 04 	mov	r13,	&0x04e2	;
    776e:	16 52 e4 04 	add	&0x04e4,r6	;0x04e4
    7772:	17 62 e6 04 	addc	&0x04e6,r7	;0x04e6
    7776:	82 48 d0 04 	mov	r8,	&0x04d0	;
    777a:	82 49 d2 04 	mov	r9,	&0x04d2	;
    777e:	82 4c e0 04 	mov	r12,	&0x04e0	;
    7782:	82 4d e2 04 	mov	r13,	&0x04e2	;
    7786:	1c 42 e4 04 	mov	&0x04e4,r12	;0x04e4
    778a:	1d 42 e6 04 	mov	&0x04e6,r13	;0x04e6
    778e:	1e 42 e8 04 	mov	&0x04e8,r14	;0x04e8
    7792:	1f 42 ea 04 	mov	&0x04ea,r15	;0x04ea
    7796:	0e 56       	add	r6,	r14	;
    7798:	0f 67       	addc	r7,	r15	;
    779a:	46 17       	popm	#5,	r10	;16-bit words
    779c:	00 13       	reti			

0000779e <memset>:
    779e:	0e 5c       	add	r12,	r14	;

000077a0 <.LVL2>:
    77a0:	0f 4c       	mov	r12,	r15	;

000077a2 <.L2>:
    77a2:	0f 9e       	cmp	r14,	r15	;
    77a4:	01 20       	jnz	$+4      	;abs 0x77a8

000077a6 <.Loc.104.1>:
    77a6:	30 41       	ret			

000077a8 <.L3>:
    77a8:	1f 53       	inc	r15		;

000077aa <.LVL4>:
    77aa:	cf 4d ff ff 	mov.b	r13,	-1(r15)	; 0xffff
    77ae:	f9 3f       	jmp	$-12     	;abs 0x77a2

000077b0 <rand>:
    77b0:	3a 15       	pushm	#4,	r10	;16-bit words

000077b2 <L0^A>:
    77b2:	1a 42 00 1c 	mov	&0x1c00,r10	;0x1c00

000077b6 <.LBB4>:
    77b6:	8a 93 1c 00 	cmp	#0,	28(r10)	;r3 As==00, 0x001c
    77ba:	23 20       	jnz	$+72     	;abs 0x7802

000077bc <.Loc.89.1>:
    77bc:	7c 40 16 00 	mov.b	#22,	r12	;#0x0016
    77c0:	b0 12 6c 78 	call	#30828		;#0x786c

000077c4 <.LVL7>:
    77c4:	8a 4c 1c 00 	mov	r12,	28(r10)	; 0x001c

000077c8 <.LBB5>:
    77c8:	bc 40 0e 33 	mov	#13070,	0(r12)	;#0x330e
    77cc:	00 00 

000077ce <.Loc.89.1>:
    77ce:	bc 40 cd ab 	mov	#-21555,2(r12)	;#0xabcd
    77d2:	02 00 

000077d4 <.Loc.89.1>:
    77d4:	bc 40 34 12 	mov	#4660,	4(r12)	;#0x1234
    77d8:	04 00 

000077da <.Loc.89.1>:
    77da:	bc 40 6d e6 	mov	#-6547,	6(r12)	;#0xe66d
    77de:	06 00 

000077e0 <.Loc.89.1>:
    77e0:	bc 40 ec de 	mov	#-8468,	8(r12)	;#0xdeec
    77e4:	08 00 

000077e6 <.Loc.89.1>:
    77e6:	bc 40 05 00 	mov	#5,	10(r12)	; 0x000a
    77ea:	0a 00 

000077ec <.Loc.89.1>:
    77ec:	bc 40 0b 00 	mov	#11,	12(r12)	;#0x000b, 0x000c
    77f0:	0c 00 

000077f2 <.Loc.89.1>:
    77f2:	9c 43 0e 00 	mov	#1,	14(r12)	;r3 As==01, 0x000e
    77f6:	8c 43 10 00 	mov	#0,	16(r12)	;r3 As==00, 0x0010
    77fa:	8c 43 12 00 	mov	#0,	18(r12)	;r3 As==00, 0x0012
    77fe:	8c 43 14 00 	mov	#0,	20(r12)	;r3 As==00, 0x0014

00007802 <.L4>:
    7802:	17 4a 1c 00 	mov	28(r10),r7	;0x0001c

00007806 <.Loc.91.1>:
    7806:	3c 40 2d 7f 	mov	#32557,	r12	;#0x7f2d
    780a:	3d 40 95 4c 	mov	#19605,	r13	;#0x4c95
    780e:	3e 40 2d f4 	mov	#-3027,	r14	;#0xf42d
    7812:	3f 40 51 58 	mov	#22609,	r15	;#0x5851
    7816:	18 47 0e 00 	mov	14(r7),	r8	;0x0000e
    781a:	19 47 10 00 	mov	16(r7),	r9	;0x00010
    781e:	1a 47 12 00 	mov	18(r7),	r10	;0x00012

00007822 <.LVL10>:
    7822:	1b 47 14 00 	mov	20(r7),	r11	;0x00014
    7826:	b0 12 3e 77 	call	#30526		;#0x773e

0000782a <.Loc.91.1>:
    782a:	08 4c       	mov	r12,	r8	;
    782c:	18 53       	inc	r8		;
    782e:	59 43       	mov.b	#1,	r9	;r3 As==01
    7830:	3c 93       	cmp	#-1,	r12	;r3 As==11
    7832:	01 2c       	jc	$+4      	;abs 0x7836
    7834:	49 43       	clr.b	r9		;

00007836 <.L5>:
    7836:	09 5d       	add	r13,	r9	;
    7838:	5a 43       	mov.b	#1,	r10	;r3 As==01
    783a:	09 9d       	cmp	r13,	r9	;
    783c:	01 28       	jnc	$+4      	;abs 0x7840
    783e:	4a 43       	clr.b	r10		;

00007840 <.L7>:
    7840:	0a 5e       	add	r14,	r10	;
    7842:	5b 43       	mov.b	#1,	r11	;r3 As==01
    7844:	0a 9e       	cmp	r14,	r10	;
    7846:	01 28       	jnc	$+4      	;abs 0x784a
    7848:	4b 43       	clr.b	r11		;

0000784a <.L9>:
    784a:	0b 5f       	add	r15,	r11	;

0000784c <.Loc.90.1>:
    784c:	87 48 0e 00 	mov	r8,	14(r7)	; 0x000e
    7850:	87 49 10 00 	mov	r9,	16(r7)	; 0x0010
    7854:	87 4a 12 00 	mov	r10,	18(r7)	; 0x0012
    7858:	87 4b 14 00 	mov	r11,	20(r7)	; 0x0014

0000785c <.Loc.92.1>:
    785c:	7c 40 20 00 	mov.b	#32,	r12	;#0x0020
    7860:	b0 12 88 79 	call	#31112		;#0x7988

00007864 <.Loc.93.1>:
    7864:	3c f0 ff 7f 	and	#32767,	r12	;#0x7fff
    7868:	37 17       	popm	#4,	r10	;16-bit words

0000786a <.LCFI3>:
    786a:	30 41       	ret			

0000786c <malloc>:
    786c:	0d 4c       	mov	r12,	r13	;
    786e:	1c 42 00 1c 	mov	&0x1c00,r12	;0x1c00

00007872 <.LVL1>:
    7872:	b0 12 78 78 	call	#30840		;#0x7878

00007876 <.LVL2>:
    7876:	30 41       	ret			

00007878 <_malloc_r>:
    7878:	3a 15       	pushm	#4,	r10	;16-bit words

0000787a <.LCFI0>:
    787a:	08 4c       	mov	r12,	r8	;

0000787c <.Loc.243.1>:
    787c:	09 4d       	mov	r13,	r9	;
    787e:	19 53       	inc	r9		;

00007880 <.Loc.249.1>:
    7880:	19 c3       	bic	#1,	r9	;r3 As==01

00007882 <.LVL1>:
    7882:	39 50 0a 00 	add	#10,	r9	;#0x000a

00007886 <.LVL2>:
    7886:	39 90 0c 00 	cmp	#12,	r9	;#0x000c
    788a:	02 2c       	jc	$+6      	;abs 0x7890
    788c:	79 40 0c 00 	mov.b	#12,	r9	;#0x000c

00007890 <.L2>:
    7890:	09 9d       	cmp	r13,	r9	;
    7892:	06 2c       	jc	$+14     	;abs 0x78a0

00007894 <.L13>:
    7894:	b8 40 0c 00 	mov	#12,	0(r8)	;#0x000c
    7898:	00 00 

0000789a <.Loc.257.1>:
    789a:	4c 43       	clr.b	r12		;

0000789c <.L1>:
    789c:	37 17       	popm	#4,	r10	;16-bit words

0000789e <.LCFI1>:
    789e:	30 41       	ret			

000078a0 <.L3>:
    78a0:	1d 42 2c 1d 	mov	&0x1d2c,r13	;0x1d2c

000078a4 <.LVL6>:
    78a4:	0a 4d       	mov	r13,	r10	;

000078a6 <.L5>:
    78a6:	0a 93       	cmp	#0,	r10	;r3 As==00
    78a8:	23 20       	jnz	$+72     	;abs 0x78f0

000078aa <.LBB5>:
    78aa:	82 93 2a 1d 	cmp	#0,	&0x1d2a	;r3 As==00
    78ae:	07 20       	jnz	$+16     	;abs 0x78be

000078b0 <.Loc.216.1>:
    78b0:	1d 42 2a 1d 	mov	&0x1d2a,r13	;0x1d2a

000078b4 <.LVL9>:
    78b4:	0c 48       	mov	r8,	r12	;
    78b6:	b0 12 66 79 	call	#31078		;#0x7966

000078ba <.LVL10>:
    78ba:	82 4c 2a 1d 	mov	r12,	&0x1d2a	;

000078be <.L17>:
    78be:	37 40 66 79 	mov	#31078,	r7	;#0x7966
    78c2:	0d 49       	mov	r9,	r13	;
    78c4:	0c 48       	mov	r8,	r12	;
    78c6:	87 12       	call	r7		;

000078c8 <.LVL11>:
    78c8:	3c 93       	cmp	#-1,	r12	;r3 As==11
    78ca:	e4 27       	jz	$-54     	;abs 0x7894

000078cc <.Loc.224.1>:
    78cc:	0a 4c       	mov	r12,	r10	;
    78ce:	1a 53       	inc	r10		;
    78d0:	1a c3       	bic	#1,	r10	;r3 As==01

000078d2 <.LVL12>:
    78d2:	0c 9a       	cmp	r10,	r12	;
    78d4:	06 24       	jz	$+14     	;abs 0x78e2

000078d6 <.Loc.229.1>:
    78d6:	0d 4a       	mov	r10,	r13	;
    78d8:	0d 8c       	sub	r12,	r13	;
    78da:	0c 48       	mov	r8,	r12	;

000078dc <.LVL13>:
    78dc:	87 12       	call	r7		;

000078de <.LVL14>:
    78de:	3c 93       	cmp	#-1,	r12	;r3 As==11
    78e0:	d9 27       	jz	$-76     	;abs 0x7894

000078e2 <.L14>:
    78e2:	0c 49       	mov	r9,	r12	;
    78e4:	0d 43       	clr	r13		;
    78e6:	8a 4c 00 00 	mov	r12,	0(r10)	;
    78ea:	8a 4d 02 00 	mov	r13,	2(r10)	;
    78ee:	17 3c       	jmp	$+48     	;abs 0x791e

000078f0 <.L10>:
    78f0:	2c 4a       	mov	@r10,	r12	;
    78f2:	0c 89       	sub	r9,	r12	;

000078f4 <.LVL17>:
    78f4:	0c 93       	cmp	#0,	r12	;r3 As==00
    78f6:	33 38       	jl	$+104    	;abs 0x795e

000078f8 <.Loc.270.1>:
    78f8:	7e 40 0b 00 	mov.b	#11,	r14	;#0x000b
    78fc:	0e 9c       	cmp	r12,	r14	;
    78fe:	25 2c       	jc	$+76     	;abs 0x794a

00007900 <.Loc.274.1>:
    7900:	0d 4c       	mov	r12,	r13	;
    7902:	0e 4c       	mov	r12,	r14	;
    7904:	4e 18 0e 11 	rpt #15 { rrax.w	r14		;

00007908 <.LVL18>:
    7908:	8a 4d 00 00 	mov	r13,	0(r10)	;
    790c:	8a 4e 02 00 	mov	r14,	2(r10)	;

00007910 <.Loc.275.1>:
    7910:	0a 5c       	add	r12,	r10	;

00007912 <.Loc.276.1>:
    7912:	0e 49       	mov	r9,	r14	;
    7914:	0f 43       	clr	r15		;
    7916:	8a 4e 00 00 	mov	r14,	0(r10)	;
    791a:	8a 4f 02 00 	mov	r15,	2(r10)	;

0000791e <.L8>:
    791e:	0d 4a       	mov	r10,	r13	;
    7920:	2d 52       	add	#4,	r13	;r2 As==10

00007922 <.LVL21>:
    7922:	0c 4a       	mov	r10,	r12	;
    7924:	3c 50 0b 00 	add	#11,	r12	;#0x000b
    7928:	3c f0 f8 ff 	and	#-8,	r12	;#0xfff8

0000792c <.LVL22>:
    792c:	0e 4c       	mov	r12,	r14	;
    792e:	0e 8d       	sub	r13,	r14	;

00007930 <.LVL23>:
    7930:	0c 9d       	cmp	r13,	r12	;
    7932:	b4 27       	jz	$-150    	;abs 0x789c

00007934 <.Loc.320.1>:
    7934:	0a 5e       	add	r14,	r10	;

00007936 <.LVL24>:
    7936:	0d 8c       	sub	r12,	r13	;

00007938 <.LVL25>:
    7938:	0e 4d       	mov	r13,	r14	;
    793a:	0f 4d       	mov	r13,	r15	;
    793c:	4e 18 0f 11 	rpt #15 { rrax.w	r15		;

00007940 <.LVL26>:
    7940:	8a 4e 00 00 	mov	r14,	0(r10)	;
    7944:	8a 4f 02 00 	mov	r15,	2(r10)	;
    7948:	a9 3f       	jmp	$-172    	;abs 0x789c

0000794a <.L7>:
    794a:	1c 4a 04 00 	mov	4(r10),	r12	;

0000794e <.LVL28>:
    794e:	0d 9a       	cmp	r10,	r13	;
    7950:	03 20       	jnz	$+8      	;abs 0x7958

00007952 <.Loc.284.1>:
    7952:	82 4c 2c 1d 	mov	r12,	&0x1d2c	;
    7956:	e3 3f       	jmp	$-56     	;abs 0x791e

00007958 <.L9>:
    7958:	8d 4c 04 00 	mov	r12,	4(r13)	;
    795c:	e0 3f       	jmp	$-62     	;abs 0x791e

0000795e <.L6>:
    795e:	0d 4a       	mov	r10,	r13	;
    7960:	1a 4a 04 00 	mov	4(r10),	r10	;

00007964 <.LVL30>:
    7964:	a0 3f       	jmp	$-190    	;abs 0x78a6

00007966 <_sbrk_r>:
    7966:	0a 15       	pushm	#1,	r10	;16-bit words

00007968 <.LCFI0>:
    7968:	0a 4c       	mov	r12,	r10	;
    796a:	0c 4d       	mov	r13,	r12	;

0000796c <.LVL1>:
    796c:	82 43 2e 1d 	mov	#0,	&0x1d2e	;r3 As==00

00007970 <L0^A>:
    7970:	b0 12 aa 79 	call	#31146		;#0x79aa

00007974 <.LVL2>:
    7974:	3c 93       	cmp	#-1,	r12	;r3 As==11
    7976:	06 20       	jnz	$+14     	;abs 0x7984

00007978 <.Loc.58.1>:
    7978:	1d 42 2e 1d 	mov	&0x1d2e,r13	;0x1d2e

0000797c <.Loc.58.1>:
    797c:	0d 93       	cmp	#0,	r13	;r3 As==00
    797e:	02 24       	jz	$+6      	;abs 0x7984

00007980 <.Loc.59.1>:
    7980:	8a 4d 00 00 	mov	r13,	0(r10)	;

00007984 <.L1>:
    7984:	0a 17       	popm	#1,	r10	;16-bit words

00007986 <.LCFI1>:
    7986:	30 41       	ret			

00007988 <__mspabi_srlll>:
    7988:	0f 4b       	mov	r11,	r15	;
    798a:	0b 4c       	mov	r12,	r11	;
    798c:	0e 4a       	mov	r10,	r14	;
    798e:	0d 49       	mov	r9,	r13	;
    7990:	0c 48       	mov	r8,	r12	;
    7992:	0b 93       	cmp	#0,	r11	;r3 As==00
    7994:	01 20       	jnz	$+4      	;abs 0x7998
    7996:	30 41       	ret			

00007998 <.L1^B4>:
    7998:	12 c3       	clrc			
    799a:	0f 10       	rrc	r15		;
    799c:	0e 10       	rrc	r14		;
    799e:	0d 10       	rrc	r13		;
    79a0:	0c 10       	rrc	r12		;
    79a2:	3b 53       	add	#-1,	r11	;r3 As==11
    79a4:	f9 23       	jnz	$-12     	;abs 0x7998
    79a6:	30 41       	ret			

000079a8 <_exit>:
    79a8:	ff 3f       	jmp	$+0      	;abs 0x79a8

000079aa <_sbrk>:
    79aa:	21 83       	decd	r1		;

000079ac <L0^A>:
    79ac:	0d 4c       	mov	r12,	r13	;

000079ae <.Loc.26.1>:
    79ae:	1c 42 7a 1c 	mov	&0x1c7a,r12	;0x1c7a

000079b2 <.LVL1>:
    79b2:	4e 43       	clr.b	r14		;
    79b4:	0e 51       	add	r1,	r14	;
    79b6:	81 4e 00 00 	mov	r14,	0(r1)	;

000079ba <.Loc.29.1>:
    79ba:	0d 5c       	add	r12,	r13	;

000079bc <.LVL2>:
    79bc:	0e 9d       	cmp	r13,	r14	;
    79be:	09 2c       	jc	$+20     	;abs 0x79d2

000079c0 <.LBB4>:
    79c0:	7e 40 19 00 	mov.b	#25,	r14	;#0x0019
    79c4:	3d 40 0a 45 	mov	#17674,	r13	;#0x450a
    79c8:	5c 43       	mov.b	#1,	r12	;r3 As==01

000079ca <.LVL4>:
    79ca:	b0 12 da 79 	call	#31194		;#0x79da

000079ce <.LVL5>:
    79ce:	b0 12 40 7a 	call	#31296		;#0x7a40

000079d2 <.L2>:
    79d2:	82 4d 7a 1c 	mov	r13,	&0x1c7a	;

000079d6 <.Loc.37.1>:
    79d6:	21 53       	incd	r1		;

000079d8 <.LCFI1>:
    79d8:	30 41       	ret			

000079da <write>:
    79da:	5a 15       	pushm	#6,	r10	;16-bit words

000079dc <.LCFI0>:
    79dc:	07 4c       	mov	r12,	r7	;
    79de:	06 4d       	mov	r13,	r6	;
    79e0:	0a 4e       	mov	r14,	r10	;

000079e2 <.LBB5>:
    79e2:	05 4c       	mov	r12,	r5	;
    79e4:	47 19 05 10 	rpt #8 { rrux.w	r5		;

000079e8 <.LBE5>:
    79e8:	48 43       	clr.b	r8		;

000079ea <.L2>:
    79ea:	4c 43       	clr.b	r12		;
    79ec:	0c 9a       	cmp	r10,	r12	;
    79ee:	03 38       	jl	$+8      	;abs 0x79f6

000079f0 <.Loc.60.1>:
    79f0:	0c 48       	mov	r8,	r12	;
    79f2:	55 17       	popm	#6,	r10	;16-bit words

000079f4 <.LCFI1>:
    79f4:	30 41       	ret			

000079f6 <.L4>:
    79f6:	09 4a       	mov	r10,	r9	;
    79f8:	7c 40 40 00 	mov.b	#64,	r12	;#0x0040
    79fc:	0c 9a       	cmp	r10,	r12	;
    79fe:	02 34       	jge	$+6      	;abs 0x7a04

00007a00 <.LVL3>:
    7a00:	79 40 40 00 	mov.b	#64,	r9	;#0x0040

00007a04 <.L3>:
    7a04:	4c 49       	mov.b	r9,	r12	;
    7a06:	c2 4c 7c 1c 	mov.b	r12,	&0x1c7c	;

00007a0a <.Loc.22.1>:
    7a0a:	c2 43 7d 1c 	mov.b	#0,	&0x1c7d	;r3 As==00

00007a0e <.Loc.23.1>:
    7a0e:	f2 40 f3 ff 	mov.b	#-13,	&0x1c7e	;#0xfff3
    7a12:	7e 1c 

00007a14 <.Loc.24.1>:
    7a14:	c2 47 7f 1c 	mov.b	r7,	&0x1c7f	;

00007a18 <.Loc.25.1>:
    7a18:	c2 45 80 1c 	mov.b	r5,	&0x1c80	;

00007a1c <.Loc.26.1>:
    7a1c:	c2 4c 81 1c 	mov.b	r12,	&0x1c81	;

00007a20 <.Loc.27.1>:
    7a20:	c2 43 82 1c 	mov.b	#0,	&0x1c82	;r3 As==00

00007a24 <.Loc.28.1>:
    7a24:	0e 49       	mov	r9,	r14	;
    7a26:	0d 46       	mov	r6,	r13	;
    7a28:	0d 58       	add	r8,	r13	;

00007a2a <.LVL5>:
    7a2a:	3c 40 87 1c 	mov	#7303,	r12	;#0x1c87
    7a2e:	b0 12 4e 7a 	call	#31310		;#0x7a4e

00007a32 <.LVL6>:
    7a32:	b0 12 3c 7a 	call	#31292		;#0x7a3c

00007a36 <.LBE9>:
    7a36:	08 59       	add	r9,	r8	;

00007a38 <.LVL8>:
    7a38:	0a 89       	sub	r9,	r10	;

00007a3a <.LVL9>:
    7a3a:	d7 3f       	jmp	$-80     	;abs 0x79ea

00007a3c <C$$IO$$>:
    7a3c:	03 43       	nop			

00007a3e <L0^A>:
    7a3e:	30 41       	ret			

00007a40 <abort>:
    7a40:	7c 40 06 00 	mov.b	#6,	r12	;
    7a44:	b0 12 fc 7a 	call	#31484		;#0x7afc

00007a48 <.LVL0>:
    7a48:	5c 43       	mov.b	#1,	r12	;r3 As==01
    7a4a:	b0 12 a8 79 	call	#31144		;#0x79a8

00007a4e <memcpy>:
    7a4e:	0f 4c       	mov	r12,	r15	;
    7a50:	0e 5d       	add	r13,	r14	;

00007a52 <.L2>:
    7a52:	0d 9e       	cmp	r14,	r13	;
    7a54:	01 20       	jnz	$+4      	;abs 0x7a58

00007a56 <.Loc.111.1>:
    7a56:	30 41       	ret			

00007a58 <.L3>:
    7a58:	ff 4d 00 00 	mov.b	@r13+,	0(r15)	;

00007a5c <.LVL4>:
    7a5c:	1f 53       	inc	r15		;
    7a5e:	f9 3f       	jmp	$-12     	;abs 0x7a52

00007a60 <memmove>:
    7a60:	1a 15       	pushm	#2,	r10	;16-bit words

00007a62 <L0^A>:
    7a62:	0f 4d       	mov	r13,	r15	;
    7a64:	0f 5e       	add	r14,	r15	;

00007a66 <.Loc.69.1>:
    7a66:	0d 9c       	cmp	r12,	r13	;
    7a68:	02 2c       	jc	$+6      	;abs 0x7a6e

00007a6a <.Loc.69.1>:
    7a6a:	0c 9f       	cmp	r15,	r12	;
    7a6c:	07 28       	jnc	$+16     	;abs 0x7a7c

00007a6e <.L2>:
    7a6e:	0e 4c       	mov	r12,	r14	;

00007a70 <.L4>:
    7a70:	0d 9f       	cmp	r15,	r13	;
    7a72:	0a 24       	jz	$+22     	;abs 0x7a88

00007a74 <.LVL3>:
    7a74:	fe 4d 00 00 	mov.b	@r13+,	0(r14)	;

00007a78 <.LVL4>:
    7a78:	1e 53       	inc	r14		;
    7a7a:	fa 3f       	jmp	$-10     	;abs 0x7a70

00007a7c <.L3>:
    7a7c:	09 4e       	mov	r14,	r9	;
    7a7e:	39 e3       	inv	r9		;

00007a80 <.Loc.74.1>:
    7a80:	4d 43       	clr.b	r13		;

00007a82 <.L5>:
    7a82:	3d 53       	add	#-1,	r13	;r3 As==11

00007a84 <.LVL7>:
    7a84:	09 9d       	cmp	r13,	r9	;
    7a86:	02 20       	jnz	$+6      	;abs 0x7a8c

00007a88 <.L9>:
    7a88:	19 17       	popm	#2,	r10	;16-bit words

00007a8a <.LCFI1>:
    7a8a:	30 41       	ret			

00007a8c <.L6>:
    7a8c:	0b 4e       	mov	r14,	r11	;
    7a8e:	0b 5d       	add	r13,	r11	;
    7a90:	0b 5c       	add	r12,	r11	;
    7a92:	0a 4f       	mov	r15,	r10	;
    7a94:	0a 5d       	add	r13,	r10	;

00007a96 <.LVL10>:
    7a96:	eb 4a 00 00 	mov.b	@r10,	0(r11)	;
    7a9a:	f3 3f       	jmp	$-24     	;abs 0x7a82

00007a9c <_raise_r>:
    7a9c:	1a 15       	pushm	#2,	r10	;16-bit words

00007a9e <.LCFI5>:
    7a9e:	0a 4c       	mov	r12,	r10	;

00007aa0 <L0^A>:
    7aa0:	09 4d       	mov	r13,	r9	;

00007aa2 <.Loc.149.1>:
    7aa2:	7c 40 1f 00 	mov.b	#31,	r12	;#0x001f

00007aa6 <.LVL13>:
    7aa6:	0c 9d       	cmp	r13,	r12	;
    7aa8:	06 2c       	jc	$+14     	;abs 0x7ab6

00007aaa <.Loc.153.1>:
    7aaa:	ba 40 16 00 	mov	#22,	0(r10)	;#0x0016
    7aae:	00 00 

00007ab0 <.Loc.154.1>:
    7ab0:	3c 43       	mov	#-1,	r12	;r3 As==11

00007ab2 <.L16>:
    7ab2:	19 17       	popm	#2,	r10	;16-bit words

00007ab4 <.LCFI6>:
    7ab4:	30 41       	ret			

00007ab6 <.L17>:
    7ab6:	1d 4a 22 00 	mov	34(r10),r13	;0x00022

00007aba <.Loc.157.1>:
    7aba:	0d 93       	cmp	#0,	r13	;r3 As==00
    7abc:	06 24       	jz	$+14     	;abs 0x7aca

00007abe <.Loc.160.1>:
    7abe:	0c 49       	mov	r9,	r12	;
    7ac0:	5c 02       	rlam	#1,	r12	;
    7ac2:	0d 5c       	add	r12,	r13	;

00007ac4 <.Loc.160.1>:
    7ac4:	2e 4d       	mov	@r13,	r14	;

00007ac6 <.LVL15>:
    7ac6:	0e 93       	cmp	#0,	r14	;r3 As==00
    7ac8:	09 20       	jnz	$+20     	;abs 0x7adc

00007aca <.L19>:
    7aca:	0c 4a       	mov	r10,	r12	;
    7acc:	b0 12 2c 7b 	call	#31532		;#0x7b2c

00007ad0 <.LVL17>:
    7ad0:	0e 49       	mov	r9,	r14	;
    7ad2:	0d 4c       	mov	r12,	r13	;
    7ad4:	0c 4a       	mov	r10,	r12	;
    7ad6:	b0 12 08 7b 	call	#31496		;#0x7b08

00007ada <.LVL18>:
    7ada:	eb 3f       	jmp	$-40     	;abs 0x7ab2

00007adc <.L20>:
    7adc:	4c 43       	clr.b	r12		;

00007ade <.Loc.164.1>:
    7ade:	1e 93       	cmp	#1,	r14	;r3 As==01
    7ae0:	e8 27       	jz	$-46     	;abs 0x7ab2

00007ae2 <.Loc.166.1>:
    7ae2:	3e 93       	cmp	#-1,	r14	;r3 As==11
    7ae4:	05 20       	jnz	$+12     	;abs 0x7af0

00007ae6 <.Loc.168.1>:
    7ae6:	ba 40 16 00 	mov	#22,	0(r10)	;#0x0016
    7aea:	00 00 

00007aec <.Loc.169.1>:
    7aec:	5c 43       	mov.b	#1,	r12	;r3 As==01
    7aee:	e1 3f       	jmp	$-60     	;abs 0x7ab2

00007af0 <.L21>:
    7af0:	8d 43 00 00 	mov	#0,	0(r13)	;r3 As==00

00007af4 <.Loc.174.1>:
    7af4:	0c 49       	mov	r9,	r12	;
    7af6:	8e 12       	call	r14		;

00007af8 <.LVL20>:
    7af8:	4c 43       	clr.b	r12		;
    7afa:	db 3f       	jmp	$-72     	;abs 0x7ab2

00007afc <raise>:
    7afc:	0d 4c       	mov	r12,	r13	;
    7afe:	1c 42 00 1c 	mov	&0x1c00,r12	;0x1c00

00007b02 <L0^A>:
    7b02:	b0 12 9c 7a 	call	#31388		;#0x7a9c

00007b06 <.LVL29>:
    7b06:	30 41       	ret			

00007b08 <_kill_r>:
    7b08:	0a 15       	pushm	#1,	r10	;16-bit words

00007b0a <.LCFI0>:
    7b0a:	0a 4c       	mov	r12,	r10	;
    7b0c:	0c 4d       	mov	r13,	r12	;

00007b0e <.LVL1>:
    7b0e:	0d 4e       	mov	r14,	r13	;

00007b10 <.LVL2>:
    7b10:	82 43 2e 1d 	mov	#0,	&0x1d2e	;r3 As==00

00007b14 <.Loc.61.1>:
    7b14:	b0 12 38 7b 	call	#31544		;#0x7b38

00007b18 <.LVL3>:
    7b18:	3c 93       	cmp	#-1,	r12	;r3 As==11
    7b1a:	06 20       	jnz	$+14     	;abs 0x7b28

00007b1c <.Loc.61.1>:
    7b1c:	1d 42 2e 1d 	mov	&0x1d2e,r13	;0x1d2e

00007b20 <.Loc.61.1>:
    7b20:	0d 93       	cmp	#0,	r13	;r3 As==00
    7b22:	02 24       	jz	$+6      	;abs 0x7b28

00007b24 <.Loc.62.1>:
    7b24:	8a 4d 00 00 	mov	r13,	0(r10)	;

00007b28 <.L1>:
    7b28:	0a 17       	popm	#1,	r10	;16-bit words

00007b2a <.LCFI1>:
    7b2a:	30 41       	ret			

00007b2c <_getpid_r>:
    7b2c:	b0 12 32 7b 	call	#31538		;#0x7b32

00007b30 <.LVL5>:
    7b30:	30 41       	ret			

00007b32 <getpid>:
    7b32:	3c 40 2a 00 	mov	#42,	r12	;#0x002a

00007b36 <.Loc.57.1>:
    7b36:	30 41       	ret			

00007b38 <kill>:
    7b38:	b0 12 46 7b 	call	#31558		;#0x7b46
    7b3c:	bc 40 58 00 	mov	#88,	0(r12)	;#0x0058
    7b40:	00 00 
    7b42:	3c 43       	mov	#-1,	r12	;r3 As==11
    7b44:	30 41       	ret			

00007b46 <__errno>:
    7b46:	1c 42 00 1c 	mov	&0x1c00,r12	;0x1c00
    7b4a:	30 41       	ret			
